
./bomb:     file format elf32-i386


Disassembly of section .init:

080486c8 <_init>:
 80486c8:	53                   	push   %ebx
 80486c9:	83 ec 08             	sub    $0x8,%esp
 80486cc:	e8 23 02 00 00       	call   80488f4 <__x86.get_pc_thunk.bx>
 80486d1:	81 c3 27 2a 00 00    	add    $0x2a27,%ebx
 80486d7:	8b 83 fc ff ff ff    	mov    -0x4(%ebx),%eax
 80486dd:	85 c0                	test   %eax,%eax
 80486df:	74 05                	je     80486e6 <_init+0x1e>
 80486e1:	e8 ea 00 00 00       	call   80487d0 <__gmon_start__@plt>
 80486e6:	83 c4 08             	add    $0x8,%esp
 80486e9:	5b                   	pop    %ebx
 80486ea:	c3                   	ret    

Disassembly of section .plt:

080486f0 <read@plt-0x10>:
 80486f0:	ff 35 fc b0 04 08    	pushl  0x804b0fc
 80486f6:	ff 25 00 b1 04 08    	jmp    *0x804b100
 80486fc:	00 00                	add    %al,(%eax)
	...

08048700 <read@plt>:
 8048700:	ff 25 04 b1 04 08    	jmp    *0x804b104
 8048706:	68 00 00 00 00       	push   $0x0
 804870b:	e9 e0 ff ff ff       	jmp    80486f0 <_init+0x28>

08048710 <printf@plt>:
 8048710:	ff 25 08 b1 04 08    	jmp    *0x804b108
 8048716:	68 08 00 00 00       	push   $0x8
 804871b:	e9 d0 ff ff ff       	jmp    80486f0 <_init+0x28>

08048720 <fflush@plt>:
 8048720:	ff 25 0c b1 04 08    	jmp    *0x804b10c
 8048726:	68 10 00 00 00       	push   $0x10
 804872b:	e9 c0 ff ff ff       	jmp    80486f0 <_init+0x28>

08048730 <memcpy@plt>:
 8048730:	ff 25 10 b1 04 08    	jmp    *0x804b110
 8048736:	68 18 00 00 00       	push   $0x18
 804873b:	e9 b0 ff ff ff       	jmp    80486f0 <_init+0x28>

08048740 <fgets@plt>:
 8048740:	ff 25 14 b1 04 08    	jmp    *0x804b114
 8048746:	68 20 00 00 00       	push   $0x20
 804874b:	e9 a0 ff ff ff       	jmp    80486f0 <_init+0x28>

08048750 <signal@plt>:
 8048750:	ff 25 18 b1 04 08    	jmp    *0x804b118
 8048756:	68 28 00 00 00       	push   $0x28
 804875b:	e9 90 ff ff ff       	jmp    80486f0 <_init+0x28>

08048760 <sleep@plt>:
 8048760:	ff 25 1c b1 04 08    	jmp    *0x804b11c
 8048766:	68 30 00 00 00       	push   $0x30
 804876b:	e9 80 ff ff ff       	jmp    80486f0 <_init+0x28>

08048770 <alarm@plt>:
 8048770:	ff 25 20 b1 04 08    	jmp    *0x804b120
 8048776:	68 38 00 00 00       	push   $0x38
 804877b:	e9 70 ff ff ff       	jmp    80486f0 <_init+0x28>

08048780 <bcopy@plt>:
 8048780:	ff 25 24 b1 04 08    	jmp    *0x804b124
 8048786:	68 40 00 00 00       	push   $0x40
 804878b:	e9 60 ff ff ff       	jmp    80486f0 <_init+0x28>

08048790 <strcpy@plt>:
 8048790:	ff 25 28 b1 04 08    	jmp    *0x804b128
 8048796:	68 48 00 00 00       	push   $0x48
 804879b:	e9 50 ff ff ff       	jmp    80486f0 <_init+0x28>

080487a0 <gethostname@plt>:
 80487a0:	ff 25 2c b1 04 08    	jmp    *0x804b12c
 80487a6:	68 50 00 00 00       	push   $0x50
 80487ab:	e9 40 ff ff ff       	jmp    80486f0 <_init+0x28>

080487b0 <getenv@plt>:
 80487b0:	ff 25 30 b1 04 08    	jmp    *0x804b130
 80487b6:	68 58 00 00 00       	push   $0x58
 80487bb:	e9 30 ff ff ff       	jmp    80486f0 <_init+0x28>

080487c0 <puts@plt>:
 80487c0:	ff 25 34 b1 04 08    	jmp    *0x804b134
 80487c6:	68 60 00 00 00       	push   $0x60
 80487cb:	e9 20 ff ff ff       	jmp    80486f0 <_init+0x28>

080487d0 <__gmon_start__@plt>:
 80487d0:	ff 25 38 b1 04 08    	jmp    *0x804b138
 80487d6:	68 68 00 00 00       	push   $0x68
 80487db:	e9 10 ff ff ff       	jmp    80486f0 <_init+0x28>

080487e0 <exit@plt>:
 80487e0:	ff 25 3c b1 04 08    	jmp    *0x804b13c
 80487e6:	68 70 00 00 00       	push   $0x70
 80487eb:	e9 00 ff ff ff       	jmp    80486f0 <_init+0x28>

080487f0 <__libc_start_main@plt>:
 80487f0:	ff 25 40 b1 04 08    	jmp    *0x804b140
 80487f6:	68 78 00 00 00       	push   $0x78
 80487fb:	e9 f0 fe ff ff       	jmp    80486f0 <_init+0x28>

08048800 <fprintf@plt>:
 8048800:	ff 25 44 b1 04 08    	jmp    *0x804b144
 8048806:	68 80 00 00 00       	push   $0x80
 804880b:	e9 e0 fe ff ff       	jmp    80486f0 <_init+0x28>

08048810 <write@plt>:
 8048810:	ff 25 48 b1 04 08    	jmp    *0x804b148
 8048816:	68 88 00 00 00       	push   $0x88
 804881b:	e9 d0 fe ff ff       	jmp    80486f0 <_init+0x28>

08048820 <strcasecmp@plt>:
 8048820:	ff 25 4c b1 04 08    	jmp    *0x804b14c
 8048826:	68 90 00 00 00       	push   $0x90
 804882b:	e9 c0 fe ff ff       	jmp    80486f0 <_init+0x28>

08048830 <__isoc99_sscanf@plt>:
 8048830:	ff 25 50 b1 04 08    	jmp    *0x804b150
 8048836:	68 98 00 00 00       	push   $0x98
 804883b:	e9 b0 fe ff ff       	jmp    80486f0 <_init+0x28>

08048840 <fopen@plt>:
 8048840:	ff 25 54 b1 04 08    	jmp    *0x804b154
 8048846:	68 a0 00 00 00       	push   $0xa0
 804884b:	e9 a0 fe ff ff       	jmp    80486f0 <_init+0x28>

08048850 <__errno_location@plt>:
 8048850:	ff 25 58 b1 04 08    	jmp    *0x804b158
 8048856:	68 a8 00 00 00       	push   $0xa8
 804885b:	e9 90 fe ff ff       	jmp    80486f0 <_init+0x28>

08048860 <sprintf@plt>:
 8048860:	ff 25 5c b1 04 08    	jmp    *0x804b15c
 8048866:	68 b0 00 00 00       	push   $0xb0
 804886b:	e9 80 fe ff ff       	jmp    80486f0 <_init+0x28>

08048870 <socket@plt>:
 8048870:	ff 25 60 b1 04 08    	jmp    *0x804b160
 8048876:	68 b8 00 00 00       	push   $0xb8
 804887b:	e9 70 fe ff ff       	jmp    80486f0 <_init+0x28>

08048880 <gethostbyname@plt>:
 8048880:	ff 25 64 b1 04 08    	jmp    *0x804b164
 8048886:	68 c0 00 00 00       	push   $0xc0
 804888b:	e9 60 fe ff ff       	jmp    80486f0 <_init+0x28>

08048890 <strtol@plt>:
 8048890:	ff 25 68 b1 04 08    	jmp    *0x804b168
 8048896:	68 c8 00 00 00       	push   $0xc8
 804889b:	e9 50 fe ff ff       	jmp    80486f0 <_init+0x28>

080488a0 <connect@plt>:
 80488a0:	ff 25 6c b1 04 08    	jmp    *0x804b16c
 80488a6:	68 d0 00 00 00       	push   $0xd0
 80488ab:	e9 40 fe ff ff       	jmp    80486f0 <_init+0x28>

080488b0 <close@plt>:
 80488b0:	ff 25 70 b1 04 08    	jmp    *0x804b170
 80488b6:	68 d8 00 00 00       	push   $0xd8
 80488bb:	e9 30 fe ff ff       	jmp    80486f0 <_init+0x28>

080488c0 <__ctype_b_loc@plt>:
 80488c0:	ff 25 74 b1 04 08    	jmp    *0x804b174
 80488c6:	68 e0 00 00 00       	push   $0xe0
 80488cb:	e9 20 fe ff ff       	jmp    80486f0 <_init+0x28>

Disassembly of section .text:

080488d0 <_start>:
 80488d0:	31 ed                	xor    %ebp,%ebp
 80488d2:	5e                   	pop    %esi
 80488d3:	89 e1                	mov    %esp,%ecx
 80488d5:	83 e4 f0             	and    $0xfffffff0,%esp
 80488d8:	50                   	push   %eax
 80488d9:	54                   	push   %esp
 80488da:	52                   	push   %edx
 80488db:	68 c0 a0 04 08       	push   $0x804a0c0
 80488e0:	68 50 a0 04 08       	push   $0x804a050
 80488e5:	51                   	push   %ecx
 80488e6:	56                   	push   %esi
 80488e7:	68 d0 89 04 08       	push   $0x80489d0
 80488ec:	e8 ff fe ff ff       	call   80487f0 <__libc_start_main@plt>
 80488f1:	f4                   	hlt    
 80488f2:	66 90                	xchg   %ax,%ax

080488f4 <__x86.get_pc_thunk.bx>:
 80488f4:	8b 1c 24             	mov    (%esp),%ebx
 80488f7:	c3                   	ret    
 80488f8:	0f 1f 84 00 00 00 00 	nopl   0x0(%eax,%eax,1)
 80488ff:	00 

08048900 <deregister_tm_clones>:
 8048900:	b8 c3 b8 04 08       	mov    $0x804b8c3,%eax
 8048905:	2d c0 b8 04 08       	sub    $0x804b8c0,%eax
 804890a:	83 f8 06             	cmp    $0x6,%eax
 804890d:	77 01                	ja     8048910 <deregister_tm_clones+0x10>
 804890f:	c3                   	ret    
 8048910:	b8 00 00 00 00       	mov    $0x0,%eax
 8048915:	85 c0                	test   %eax,%eax
 8048917:	74 f6                	je     804890f <deregister_tm_clones+0xf>
 8048919:	55                   	push   %ebp
 804891a:	89 e5                	mov    %esp,%ebp
 804891c:	8d 64 24 e8          	lea    -0x18(%esp),%esp
 8048920:	c7 04 24 c0 b8 04 08 	movl   $0x804b8c0,(%esp)
 8048927:	ff d0                	call   *%eax
 8048929:	c9                   	leave  
 804892a:	c3                   	ret    
 804892b:	90                   	nop
 804892c:	8d 74 26 00          	lea    0x0(%esi,%eiz,1),%esi

08048930 <register_tm_clones>:
 8048930:	b8 c0 b8 04 08       	mov    $0x804b8c0,%eax
 8048935:	2d c0 b8 04 08       	sub    $0x804b8c0,%eax
 804893a:	c1 f8 02             	sar    $0x2,%eax
 804893d:	89 c2                	mov    %eax,%edx
 804893f:	c1 ea 1f             	shr    $0x1f,%edx
 8048942:	01 d0                	add    %edx,%eax
 8048944:	d1 f8                	sar    %eax
 8048946:	75 01                	jne    8048949 <register_tm_clones+0x19>
 8048948:	c3                   	ret    
 8048949:	ba 00 00 00 00       	mov    $0x0,%edx
 804894e:	85 d2                	test   %edx,%edx
 8048950:	74 f6                	je     8048948 <register_tm_clones+0x18>
 8048952:	55                   	push   %ebp
 8048953:	89 e5                	mov    %esp,%ebp
 8048955:	8d 64 24 e8          	lea    -0x18(%esp),%esp
 8048959:	89 44 24 04          	mov    %eax,0x4(%esp)
 804895d:	c7 04 24 c0 b8 04 08 	movl   $0x804b8c0,(%esp)
 8048964:	ff d2                	call   *%edx
 8048966:	c9                   	leave  
 8048967:	c3                   	ret    
 8048968:	90                   	nop
 8048969:	8d b4 26 00 00 00 00 	lea    0x0(%esi,%eiz,1),%esi

08048970 <__do_global_dtors_aux>:
 8048970:	80 3d e4 b8 04 08 00 	cmpb   $0x0,0x804b8e4
 8048977:	75 18                	jne    8048991 <__do_global_dtors_aux+0x21>
 8048979:	55                   	push   %ebp
 804897a:	89 e5                	mov    %esp,%ebp
 804897c:	8d 64 24 f8          	lea    -0x8(%esp),%esp
 8048980:	e8 7b ff ff ff       	call   8048900 <deregister_tm_clones>
 8048985:	c6 05 e4 b8 04 08 01 	movb   $0x1,0x804b8e4
 804898c:	90                   	nop
 804898d:	90                   	nop
 804898e:	90                   	nop
 804898f:	90                   	nop
 8048990:	c9                   	leave  
 8048991:	c3                   	ret    
 8048992:	8d b4 26 00 00 00 00 	lea    0x0(%esi,%eiz,1),%esi
 8048999:	8d bc 27 00 00 00 00 	lea    0x0(%edi,%eiz,1),%edi

080489a0 <frame_dummy>:
 80489a0:	a1 08 b0 04 08       	mov    0x804b008,%eax
 80489a5:	85 c0                	test   %eax,%eax
 80489a7:	74 1f                	je     80489c8 <frame_dummy+0x28>
 80489a9:	b8 00 00 00 00       	mov    $0x0,%eax
 80489ae:	85 c0                	test   %eax,%eax
 80489b0:	74 16                	je     80489c8 <frame_dummy+0x28>
 80489b2:	55                   	push   %ebp
 80489b3:	89 e5                	mov    %esp,%ebp
 80489b5:	8d 64 24 e8          	lea    -0x18(%esp),%esp
 80489b9:	c7 04 24 08 b0 04 08 	movl   $0x804b008,(%esp)
 80489c0:	ff d0                	call   *%eax
 80489c2:	c9                   	leave  
 80489c3:	e9 68 ff ff ff       	jmp    8048930 <register_tm_clones>
 80489c8:	e9 63 ff ff ff       	jmp    8048930 <register_tm_clones>
 80489cd:	0f 1f 00             	nopl   (%eax)

080489d0 <main>:
 80489d0:	55                   	push   %ebp
 80489d1:	89 e5                	mov    %esp,%ebp
 80489d3:	53                   	push   %ebx
 80489d4:	83 e4 f0             	and    $0xfffffff0,%esp
 80489d7:	83 ec 10             	sub    $0x10,%esp
 80489da:	8b 45 08             	mov    0x8(%ebp),%eax
 80489dd:	8b 5d 0c             	mov    0xc(%ebp),%ebx
 80489e0:	83 f8 01             	cmp    $0x1,%eax
 80489e3:	75 0c                	jne    80489f1 <main+0x21>
 80489e5:	a1 c4 b8 04 08       	mov    0x804b8c4,%eax
 80489ea:	a3 ec b8 04 08       	mov    %eax,0x804b8ec
 80489ef:	eb 64                	jmp    8048a55 <main+0x85>
 80489f1:	83 f8 02             	cmp    $0x2,%eax
 80489f4:	75 41                	jne    8048a37 <main+0x67>
 80489f6:	c7 44 24 04 f7 a5 04 	movl   $0x804a5f7,0x4(%esp)
 80489fd:	08 
 80489fe:	8b 43 04             	mov    0x4(%ebx),%eax
 8048a01:	89 04 24             	mov    %eax,(%esp)
 8048a04:	e8 37 fe ff ff       	call   8048840 <fopen@plt>
 8048a09:	a3 ec b8 04 08       	mov    %eax,0x804b8ec
 8048a0e:	85 c0                	test   %eax,%eax
 8048a10:	75 43                	jne    8048a55 <main+0x85>
 8048a12:	8b 43 04             	mov    0x4(%ebx),%eax
 8048a15:	89 44 24 08          	mov    %eax,0x8(%esp)
 8048a19:	8b 03                	mov    (%ebx),%eax
 8048a1b:	89 44 24 04          	mov    %eax,0x4(%esp)
 8048a1f:	c7 04 24 e4 a0 04 08 	movl   $0x804a0e4,(%esp)
 8048a26:	e8 e5 fc ff ff       	call   8048710 <printf@plt>
 8048a2b:	c7 04 24 08 00 00 00 	movl   $0x8,(%esp)
 8048a32:	e8 a9 fd ff ff       	call   80487e0 <exit@plt>
 8048a37:	8b 03                	mov    (%ebx),%eax
 8048a39:	89 44 24 04          	mov    %eax,0x4(%esp)
 8048a3d:	c7 04 24 01 a1 04 08 	movl   $0x804a101,(%esp)
 8048a44:	e8 c7 fc ff ff       	call   8048710 <printf@plt>
 8048a49:	c7 04 24 08 00 00 00 	movl   $0x8,(%esp)
 8048a50:	e8 8b fd ff ff       	call   80487e0 <exit@plt>
 8048a55:	e8 be 05 00 00       	call   8049018 <initialize_bomb>
 8048a5a:	c7 04 24 68 a1 04 08 	movl   $0x804a168,(%esp)
 8048a61:	e8 5a fd ff ff       	call   80487c0 <puts@plt>
 8048a66:	c7 04 24 a4 a1 04 08 	movl   $0x804a1a4,(%esp)
 8048a6d:	e8 4e fd ff ff       	call   80487c0 <puts@plt>
 8048a72:	e8 0f 08 00 00       	call   8049286 <read_line>
 8048a77:	89 04 24             	mov    %eax,(%esp)
 8048a7a:	e8 b1 00 00 00       	call   8048b30 <phase_1>
 8048a7f:	e8 5e 09 00 00       	call   80493e2 <phase_defused>
 8048a84:	c7 04 24 d0 a1 04 08 	movl   $0x804a1d0,(%esp)
 8048a8b:	e8 30 fd ff ff       	call   80487c0 <puts@plt>
 8048a90:	e8 f1 07 00 00       	call   8049286 <read_line>
 8048a95:	89 04 24             	mov    %eax,(%esp)
 8048a98:	e8 b7 00 00 00       	call   8048b54 <phase_2>
 8048a9d:	e8 40 09 00 00       	call   80493e2 <phase_defused>
 8048aa2:	c7 04 24 1b a1 04 08 	movl   $0x804a11b,(%esp)
 8048aa9:	e8 12 fd ff ff       	call   80487c0 <puts@plt>
 8048aae:	e8 d3 07 00 00       	call   8049286 <read_line>
 8048ab3:	89 04 24             	mov    %eax,(%esp)
 8048ab6:	e8 ef 00 00 00       	call   8048baa <phase_3>
 8048abb:	e8 22 09 00 00       	call   80493e2 <phase_defused>
 8048ac0:	c7 04 24 39 a1 04 08 	movl   $0x804a139,(%esp)
 8048ac7:	e8 f4 fc ff ff       	call   80487c0 <puts@plt>
 8048acc:	e8 b5 07 00 00       	call   8049286 <read_line>
 8048ad1:	89 04 24             	mov    %eax,(%esp)
 8048ad4:	e8 ce 01 00 00       	call   8048ca7 <phase_4>
 8048ad9:	e8 04 09 00 00       	call   80493e2 <phase_defused>
 8048ade:	c7 04 24 fc a1 04 08 	movl   $0x804a1fc,(%esp)
 8048ae5:	e8 d6 fc ff ff       	call   80487c0 <puts@plt>
 8048aea:	e8 97 07 00 00       	call   8049286 <read_line>
 8048aef:	89 04 24             	mov    %eax,(%esp)
 8048af2:	e8 1f 02 00 00       	call   8048d16 <phase_5>
 8048af7:	e8 e6 08 00 00       	call   80493e2 <phase_defused>
 8048afc:	c7 04 24 48 a1 04 08 	movl   $0x804a148,(%esp)
 8048b03:	e8 b8 fc ff ff       	call   80487c0 <puts@plt>
 8048b08:	e8 79 07 00 00       	call   8049286 <read_line>
 8048b0d:	89 04 24             	mov    %eax,(%esp)
 8048b10:	e8 69 02 00 00       	call   8048d7e <phase_6>
 8048b15:	e8 c8 08 00 00       	call   80493e2 <phase_defused>
 8048b1a:	b8 00 00 00 00       	mov    $0x0,%eax
 8048b1f:	8b 5d fc             	mov    -0x4(%ebp),%ebx
 8048b22:	c9                   	leave  
 8048b23:	c3                   	ret    
 8048b24:	66 2e 0f 1f 84 00 00 	nopw   %cs:0x0(%eax,%eax,1)
 8048b2b:	00 00 00 
 8048b2e:	66 90                	xchg   %ax,%ax

08048b30 <phase_1>:
 8048b30:	83 ec 1c             	sub    $0x1c,%esp
 8048b33:	c7 44 24 04 20 a2 04 	movl   $0x804a220,0x4(%esp)
 8048b3a:	08 
 8048b3b:	8b 44 24 20          	mov    0x20(%esp),%eax
 8048b3f:	89 04 24             	mov    %eax,(%esp)
 8048b42:	e8 63 04 00 00       	call   8048faa <strings_not_equal>
 8048b47:	85 c0                	test   %eax,%eax
 8048b49:	74 05                	je     8048b50 <phase_1+0x20>
 8048b4b:	e8 f7 06 00 00       	call   8049247 <explode_bomb>
 8048b50:	83 c4 1c             	add    $0x1c,%esp
 8048b53:	c3                   	ret    

08048b54 <phase_2>:					(for 1 2 3 4 5 6)
 8048b54:	56                   	push   %esi	
 8048b55:	53                   	push   %ebx
 8048b56:	83 ec 34             	sub    $0x34,%esp
 8048b59:	8d 44 24 18          	lea    0x18(%esp),%eax
 8048b5d:	89 44 24 04          	mov    %eax,0x4(%esp)
 8048b61:	8b 44 24 40          	mov    0x40(%esp),%eax
 8048b65:	89 04 24             	mov    %eax,(%esp)
 8048b68:	e8 25 08 00 00       	call   8049392 <read_six_numbers>
 8048b6d:	83 7c 24 18 00       	cmpl   $0x0,0x18(%esp)  1st entered (needs to be 0)
 8048b72:	75 07                	jne    8048b7b <phase_2+0x27>
 8048b74:	83 7c 24 1c 01       	cmpl   $0x1,0x1c(%esp) second enetered (needs to be 1)
 8048b79:	74 1f                	je     8048b9a <phase_2+0x46>
 8048b7b:	e8 c7 06 00 00       	call   8049247 <explode_bomb>
 8048b80:	eb 18                	jmp    8048b9a <phase_2+0x46>
 8048b82:	8b 43 f8             	mov    -0x8(%ebx),%eax		ebx-8 -> eax == 1st -> eax
 8048b85:	03 43 fc             	add    -0x4(%ebx),%eax  	eax += 2nd;
 8048b88:	39 03                	cmp    %eax,(%ebx)	(must be equal)
 8048b8a:	74 05                	je     8048b91 <phase_2+0x3d>
 8048b8c:	e8 b6 06 00 00       	call   8049247 <explode_bomb>
 8048b91:	83 c3 04             	add    $0x4,%ebx
 8048b94:	39 f3                	cmp    %esi,%ebx
 8048b96:	75 ea                	jne    8048b82 <phase_2+0x2e>
 8048b98:	eb 0a                	jmp    8048ba4 <phase_2+0x50>
 8048b9a:	8d 5c 24 20          	lea    0x20(%esp),%ebx 	third -> ebx
 8048b9e:	8d 74 24 30          	lea    0x30(%esp),%esi
 8048ba2:	eb de                	jmp    8048b82 <phase_2+0x2e>
 8048ba4:	83 c4 34             	add    $0x34,%esp
 8048ba7:	5b                   	pop    %ebx
 8048ba8:	5e                   	pop    %esi
 8048ba9:	c3                   	ret    

08048baa <phase_3>:
 8048baa:	83 ec 2c             	sub    $0x2c,%esp
 8048bad:	8d 44 24 18          	lea    0x18(%esp),%eax
 8048bb1:	89 44 24 0c          	mov    %eax,0xc(%esp)
 8048bb5:	8d 44 24 1c          	lea    0x1c(%esp),%eax
 8048bb9:	89 44 24 08          	mov    %eax,0x8(%esp)
 8048bbd:	c7 44 24 04 35 a5 04 	movl   $0x804a535,0x4(%esp)
 8048bc4:	08 
 8048bc5:	8b 44 24 30          	mov    0x30(%esp),%eax
 8048bc9:	89 04 24             	mov    %eax,(%esp)
 8048bcc:	e8 5f fc ff ff       	call   8048830 <__isoc99_sscanf@plt>
 8048bd1:	83 f8 01             	cmp    $0x1,%eax			2nd > 1
 8048bd4:	7f 05                	jg     8048bdb <phase_3+0x31>
 8048bd6:	e8 6c 06 00 00       	call   8049247 <explode_bomb>
 8048bdb:	83 7c 24 1c 07       	cmpl   $0x7,0x1c(%esp)			1st < 7
 8048be0:	77 3c                	ja     8048c1e <phase_3+0x74>
 8048be2:	8b 44 24 1c          	mov    0x1c(%esp),%eax
 8048be6:	ff 24 85 70 a2 04 08 	jmp    *0x804a270(,%eax,4)	-----
 8048bed:	b8 77 00 00 00       	mov    $0x77,%eax
 8048bf2:	eb 3b                	jmp    8048c2f <phase_3+0x85>
 8048bf4:	b8 21 01 00 00       	mov    $0x121,%eax
 8048bf9:	eb 34                	jmp    8048c2f <phase_3+0x85>
 8048bfb:	b8 3d 02 00 00       	mov    $0x23d,%eax
 8048c00:	eb 2d                	jmp    8048c2f <phase_3+0x85>
 8048c02:	b8 b6 02 00 00       	mov    $0x2b6,%eax
 8048c07:	eb 26                	jmp    8048c2f <phase_3+0x85>
 8048c09:	b8 c8 03 00 00       	mov    $0x3c8,%eax
 8048c0e:	eb 1f                	jmp    8048c2f <phase_3+0x85>
 8048c10:	b8 a4 00 00 00       	mov    $0xa4,%eax
 8048c15:	eb 18                	jmp    8048c2f <phase_3+0x85>
 8048c17:	b8 92 00 00 00       	mov    $0x92,%eax
 8048c1c:	eb 11                	jmp    8048c2f <phase_3+0x85>
 8048c1e:	e8 24 06 00 00       	call   8049247 <explode_bomb>
 8048c23:	b8 00 00 00 00       	mov    $0x0,%eax		
 8048c28:	eb 05                	jmp    8048c2f <phase_3+0x85>
 8048c2a:	b8 0a 01 00 00       	mov    $0x10a,%eax
 8048c2f:	3b 44 24 18          	cmp    0x18(%esp),%eax		2nd == 0x10a (266)
 8048c33:	74 05                	je     8048c3a <phase_3+0x90>
 8048c35:	e8 0d 06 00 00       	call   8049247 <explode_bomb>
 8048c3a:	83 c4 2c             	add    $0x2c,%esp
 8048c3d:	c3                   	ret    

08048c3e <func4>:
 8048c3e:	83 ec 1c             	sub    $0x1c,%esp		decrement down by 28
 8048c41:	89 5c 24 14          	mov    %ebx,0x14(%esp)		e[20] = b	
 8048c45:	89 74 24 18          	mov    %esi,0x18(%esp)		e[24] = s
 8048c49:	8b 44 24 20          	mov    0x20(%esp),%eax		a = e[32]	e[4] from last a = input = e[32]
 8048c4d:	8b 54 24 24          	mov    0x24(%esp),%edx		d = e[36]	e[8] from last
 8048c51:	8b 74 24 28          	mov    0x28(%esp),%esi		s = e[40] 	e[12] from last
 8048c55:	89 f1                	mov    %esi,%ecx		c = s
 8048c57:	29 d1                	sub    %edx,%ecx		c = -= d
 8048c59:	89 cb                	mov    %ecx,%ebx		b = c
 8048c5b:	c1 eb 1f             	shr    $0x1f,%ebx		b >> 31
 8048c5e:	01 d9                	add    %ebx,%ecx		c += b
 8048c60:	d1 f9                	sar    %ecx			c >> 1
 8048c62:	8d 1c 11             	lea    (%ecx,%edx,1),%ebx	b = c + d			
 8048c65:	39 c3                	cmp    %eax,%ebx		
 8048c67:	7e 17                	jle    8048c80 <func4+0x42>	a <= b			jump1
 8048c69:	8d 4b ff             	lea    -0x1(%ebx),%ecx		c = b - 1
 8048c6c:	89 4c 24 08          	mov    %ecx,0x8(%esp)		e[8] = c
 8048c70:	89 54 24 04          	mov    %edx,0x4(%esp)		e[4] = d
 8048c74:	89 04 24             	mov    %eax,(%esp)		esp[0] = a
 8048c77:	e8 c2 ff ff ff       	call   8048c3e <func4>		recurse
 8048c7c:	01 c3                	add    %eax,%ebx		b += a
 8048c7e:	eb 19                	jmp    8048c99 <func4+0x5b>				jump3
 8048c80:	39 c3                	cmp    %eax,%ebx					jump1 dest
 8048c82:	7d 15                	jge    8048c99 <func4+0x5b>	b >= a 			jump2
 8048c84:	89 74 24 08          	mov    %esi,0x8(%esp)		e[8] = s
 8048c88:	8d 53 01             	lea    0x1(%ebx),%edx		d = b+1
 8048c8b:	89 54 24 04          	mov    %edx,0x4(%esp)		e[4] = d
 8048c8f:	89 04 24             	mov    %eax,(%esp)		e[0] = a
 8048c92:	e8 a7 ff ff ff       	call   8048c3e <func4>		recurse
 8048c97:	01 c3                	add    %eax,%ebx		//from here on undoing func4
 8048c99:	89 d8                	mov    %ebx,%eax		a = b		jump2 dest, jump3 dest
 8048c9b:	8b 5c 24 14          	mov    0x14(%esp),%ebx		b = e[20]
 8048c9f:	8b 74 24 18          	mov    0x18(%esp),%esi		s = e[24]
 8048ca3:	83 c4 1c             	add    $0x1c,%esp		move stack back up
 8048ca6:	c3                   	ret    

08048ca7 <phase_4>:
 8048ca7:	83 ec 2c             	sub    $0x2c,%esp		e -= 44
 8048caa:	8d 44 24 18          	lea    0x18(%esp),%eax		a = e[24]  
 8048cae:	89 44 24 0c          	mov    %eax,0xc(%esp)		e[12] = a
 8048cb2:	8d 44 24 1c          	lea    0x1c(%esp),%eax		a = e[28]
 8048cb6:	89 44 24 08          	mov    %eax,0x8(%esp)		e[8] = a
 8048cba:	c7 44 24 04 35 a5 04 	movl   $0x804a535,0x4(%esp)	e[4] =  "%d %d"
 8048cc1:	08 
 8048cc2:	8b 44 24 30          	mov    0x30(%esp),%eax		a = e[48]
 8048cc6:	89 04 24             	mov    %eax,(%esp)		e[0] = a
 8048cc9:	e8 62 fb ff ff       	call   8048830 <__isoc99_sscanf@plt>		//scan in 2 ints
 8048cce:	83 f8 02             	cmp    $0x2,%eax		
 8048cd1:	75 0d                	jne    8048ce0 <phase_4+0x39>	a == 2 (2nd == 2)		jump1
 8048cd3:	8b 44 24 1c          	mov    0x1c(%esp),%eax		a = e[28]
 8048cd7:	85 c0                	test   %eax,%eax		
 8048cd9:	78 05                	js     8048ce0 <phase_4+0x39>	a != 0 (1st != 0)		jump2
 8048cdb:	83 f8 0e             	cmp    $0xe,%eax		
 8048cde:	7e 05                	jle    8048ce5 <phase_4+0x3e>	a <= 14 (1st <= 14)		jump3
 8048ce0:	e8 62 05 00 00       	call   8049247 <explode_bomb>					dest jump1, dest jump2
 8048ce5:	c7 44 24 08 0e 00 00 	movl   $0xe,0x8(%esp)		e[8] = 14
 8048cec:	00 
 8048ced:	c7 44 24 04 00 00 00 	movl   $0x0,0x4(%esp) 		e[4] = 0
 8048cf4:	00 
 8048cf5:	8b 44 24 1c          	mov    0x1c(%esp),%eax		a = e[28] (1st = e[28])
 8048cf9:	89 04 24             	mov    %eax,(%esp)		e[0] = a (1st)
 8048cfc:	e8 3d ff ff ff       	call   8048c3e <func4>		func4
 8048d01:	83 f8 07             	cmp    $0x7,%eax		a != 7
 8048d04:	75 07                	jne    8048d0d <phase_4+0x66>
 8048d06:	83 7c 24 18 07       	cmpl   $0x7,0x18(%esp)		e[24] == 7 (2nd == 7)
 8048d0b:	74 05                	je     8048d12 <phase_4+0x6b>
 8048d0d:	e8 35 05 00 00       	call   8049247 <explode_bomb>
 8048d12:	83 c4 2c             	add    $0x2c,%esp
 8048d15:	c3                   	ret    

08048d16 <phase_5>:
 8048d16:	53                   	push   %ebx
 8048d17:	83 ec 28             	sub    $0x28,%esp
 8048d1a:	8b 5c 24 30          	mov    0x30(%esp),%ebx
 8048d1e:	89 1c 24             	mov    %ebx,(%esp)
 8048d21:	e8 65 02 00 00       	call   8048f8b <string_length>
 8048d26:	83 f8 06             	cmp    $0x6,%eax
 8048d29:	74 47                	je     8048d72 <phase_5+0x5c>		jump1	string must be length 6
 8048d2b:	e8 17 05 00 00       	call   8049247 <explode_bomb>
 8048d30:	eb 40                	jmp    8048d72 <phase_5+0x5c>
 8048d32:	0f b6 14 03          	movzbl (%ebx,%eax,1),%edx		d = a + b a = increment, b = *input 	dest2, dest3
 8048d36:	83 e2 0f             	and    $0xf,%edx			d = last 4 bits of string, b = string
 8048d39:	0f b6 92 90 a2 04 08 	movzbl 0x804a290(%edx),%edx		d = d + 0x804a290
 8048d40:	88 54 04 19          	mov    %dl,0x19(%esp,%eax,1)		last byte of dl -> e[25] + 6
 8048d44:	83 c0 01             	add    $0x1,%eax
 8048d47:	83 f8 06             	cmp    $0x6,%eax			jumps till runs through 6 iterations
 8048d4a:	75 e6                	jne    8048d32 <phase_5+0x1c>		jump3
 8048d4c:	c6 44 24 1f 00       	movb   $0x0,0x1f(%esp)			e[31] = 0
 8048d51:	c7 44 24 04 66 a2 04 	movl   $0x804a266,0x4(%esp)		e[4] = 0x804a266
 8048d58:	08 
 8048d59:	8d 44 24 19          	lea    0x19(%esp),%eax			eax = *e[25]
 8048d5d:	89 04 24             	mov    %eax,(%esp)			esp = eax
 8048d60:	e8 45 02 00 00       	call   8048faa <strings_not_equal>
 8048d65:	85 c0                	test   %eax,%eax
 8048d67:	74 10                	je     8048d79 <phase_5+0x63>		jump4
 8048d69:	e8 d9 04 00 00       	call   8049247 <explode_bomb>
 8048d6e:	66 90                	xchg   %ax,%ax
 8048d70:	eb 07                	jmp    8048d79 <phase_5+0x63>
 8048d72:	b8 00 00 00 00       	mov    $0x0,%eax			dest1	a = 0
 8048d77:	eb b9                	jmp    8048d32 <phase_5+0x1c>		jump2
 8048d79:	83 c4 28             	add    $0x28,%esp			dest4
 8048d7c:	5b                   	pop    %ebx
 8048d7d:	c3                   	ret    

08048d7e <phase_6>:
 8048d7e:	57                   	push   %edi				input = edi
 8048d7f:	56                   	push   %esi
 8048d80:	53                   	push   %ebx
 8048d81:	83 ec 40             	sub    $0x40,%esp
 8048d84:	8d 44 24 28          	lea    0x28(%esp),%eax			input = e[0x28]
 8048d88:	89 44 24 04          	mov    %eax,0x4(%esp)
 8048d8c:	8b 44 24 50          	mov    0x50(%esp),%eax
 8048d90:	89 04 24             	mov    %eax,(%esp)
 8048d93:	e8 fa 05 00 00       	call   8049392 <read_six_numbers>
 8048d98:	bf 00 00 00 00       	mov    $0x0,%edi
 8048d9d:	8b 44 bc 28          	mov    0x28(%esp,%edi,4),%eax		eax = 1st
 8048da1:	83 e8 01             	sub    $0x1,%eax			eax -= 1
 8048da4:	83 f8 05             	cmp    $0x5,%eax			
 8048da7:	76 05                	jbe    8048dae <phase_6+0x30>		if(eax <= 5)		jump1
 8048da9:	e8 99 04 00 00       	call   8049247 <explode_bomb>
 8048dae:	8d 77 01             	lea    0x1(%edi),%esi			esi = 1			dest1
 8048db1:	83 fe 06             	cmp    $0x6,%esi
 8048db4:	74 35                	je     8048deb <phase_6+0x6d>					jump2
 8048db6:	89 f3                	mov    %esi,%ebx
 8048db8:	8b 44 9c 28          	mov    0x28(%esp,%ebx,4),%eax
 8048dbc:	39 44 b4 24          	cmp    %eax,0x24(%esp,%esi,4)
 8048dc0:	75 05                	jne    8048dc7 <phase_6+0x49>
 8048dc2:	e8 80 04 00 00       	call   8049247 <explode_bomb>
 8048dc7:	83 c3 01             	add    $0x1,%ebx
 8048dca:	89 f7                	mov    %esi,%edi
 8048dcc:	83 fb 05             	cmp    $0x5,%ebx
 8048dcf:	7e e7                	jle    8048db8 <phase_6+0x3a>
 8048dd1:	eb ca                	jmp    8048d9d <phase_6+0x1f>
 8048dd3:	8b 52 08             	mov    0x8(%edx),%edx						dest3
 8048dd6:	83 c0 01             	add    $0x1,%eax
 8048dd9:	39 c8                	cmp    %ecx,%eax
 8048ddb:	75 f6                	jne    8048dd3 <phase_6+0x55>
 8048ddd:	89 54 b4 10          	mov    %edx,0x10(%esp,%esi,4)					dest4
 8048de1:	83 c3 01             	add    $0x1,%ebx
 8048de4:	83 fb 06             	cmp    $0x6,%ebx
 8048de7:	75 07                	jne    8048df0 <phase_6+0x72>
 8048de9:	eb 1c                	jmp    8048e07 <phase_6+0x89>
 8048deb:	bb 00 00 00 00       	mov    $0x0,%ebx			b = 0			dest2
 8048df0:	89 de                	mov    %ebx,%esis			s = 0
 8048df2:	8b 4c 9c 28          	mov    0x28(%esp,%ebx,4),%ecx		c = nth num
 8048df6:	b8 01 00 00 00       	mov    $0x1,%eax			a = 1
 8048dfb:	ba 54 b2 04 08       	mov    $0x804b254,%edx			edx = node1
 8048e00:	83 f9 01             	cmp    $0x1,%ecx
 8048e03:	7f ce                	jg     8048dd3 <phase_6+0x55>		if c < 1		jump3
 8048e05:	eb d6                	jmp    8048ddd <phase_6+0x5f>					jump4
 8048e07:	8b 5c 24 10          	mov    0x10(%esp),%ebx
 8048e0b:	8b 44 24 14          	mov    0x14(%esp),%eax
 8048e0f:	89 43 08             	mov    %eax,0x8(%ebx)
 8048e12:	8b 54 24 18          	mov    0x18(%esp),%edx
 8048e16:	89 50 08             	mov    %edx,0x8(%eax)
 8048e19:	8b 44 24 1c          	mov    0x1c(%esp),%eax
 8048e1d:	89 42 08             	mov    %eax,0x8(%edx)
 8048e20:	8b 54 24 20          	mov    0x20(%esp),%edx
 8048e24:	89 50 08             	mov    %edx,0x8(%eax)
 8048e27:	8b 44 24 24          	mov    0x24(%esp),%eax
 8048e2b:	89 42 08             	mov    %eax,0x8(%edx)
 8048e2e:	c7 40 08 00 00 00 00 	movl   $0x0,0x8(%eax)
 8048e35:	be 05 00 00 00       	mov    $0x5,%esi
 8048e3a:	8b 43 08             	mov    0x8(%ebx),%eax
 8048e3d:	8b 10                	mov    (%eax),%edx
 8048e3f:	39 13                	cmp    %edx,(%ebx)
 8048e41:	7d 05                	jge    8048e48 <phase_6+0xca>
 8048e43:	e8 ff 03 00 00       	call   8049247 <explode_bomb>
 8048e48:	8b 5b 08             	mov    0x8(%ebx),%ebx
 8048e4b:	83 ee 01             	sub    $0x1,%esi
 8048e4e:	75 ea                	jne    8048e3a <phase_6+0xbc>
 8048e50:	83 c4 40             	add    $0x40,%esp
 8048e53:	5b                   	pop    %ebx
 8048e54:	5e                   	pop    %esi
 8048e55:	5f                   	pop    %edi
 8048e56:	c3                   	ret    

08048e57 <fun7>:
 8048e57:	53                   	push   %ebx
 8048e58:	83 ec 18             	sub    $0x18,%esp
 8048e5b:	8b 54 24 20          	mov    0x20(%esp),%edx
 8048e5f:	8b 4c 24 24          	mov    0x24(%esp),%ecx
 8048e63:	85 d2                	test   %edx,%edx
 8048e65:	74 37                	je     8048e9e <fun7+0x47>
 8048e67:	8b 1a                	mov    (%edx),%ebx
 8048e69:	39 cb                	cmp    %ecx,%ebx
 8048e6b:	7e 13                	jle    8048e80 <fun7+0x29>
 8048e6d:	89 4c 24 04          	mov    %ecx,0x4(%esp)
 8048e71:	8b 42 04             	mov    0x4(%edx),%eax
 8048e74:	89 04 24             	mov    %eax,(%esp)
 8048e77:	e8 db ff ff ff       	call   8048e57 <fun7>
 8048e7c:	01 c0                	add    %eax,%eax
 8048e7e:	eb 23                	jmp    8048ea3 <fun7+0x4c>
 8048e80:	b8 00 00 00 00       	mov    $0x0,%eax
 8048e85:	39 cb                	cmp    %ecx,%ebx
 8048e87:	74 1a                	je     8048ea3 <fun7+0x4c>
 8048e89:	89 4c 24 04          	mov    %ecx,0x4(%esp)
 8048e8d:	8b 42 08             	mov    0x8(%edx),%eax
 8048e90:	89 04 24             	mov    %eax,(%esp)
 8048e93:	e8 bf ff ff ff       	call   8048e57 <fun7>
 8048e98:	8d 44 00 01          	lea    0x1(%eax,%eax,1),%eax
 8048e9c:	eb 05                	jmp    8048ea3 <fun7+0x4c>
 8048e9e:	b8 ff ff ff ff       	mov    $0xffffffff,%eax
 8048ea3:	83 c4 18             	add    $0x18,%esp
 8048ea6:	5b                   	pop    %ebx
 8048ea7:	c3                   	ret    

08048ea8 <secret_phase>:
 8048ea8:	53                   	push   %ebx
 8048ea9:	83 ec 18             	sub    $0x18,%esp
 8048eac:	e8 d5 03 00 00       	call   8049286 <read_line>
 8048eb1:	c7 44 24 08 0a 00 00 	movl   $0xa,0x8(%esp)
 8048eb8:	00 
 8048eb9:	c7 44 24 04 00 00 00 	movl   $0x0,0x4(%esp)
 8048ec0:	00 
 8048ec1:	89 04 24             	mov    %eax,(%esp)
 8048ec4:	e8 c7 f9 ff ff       	call   8048890 <strtol@plt>
 8048ec9:	89 c3                	mov    %eax,%ebx
 8048ecb:	8d 40 ff             	lea    -0x1(%eax),%eax
 8048ece:	3d e8 03 00 00       	cmp    $0x3e8,%eax
 8048ed3:	76 05                	jbe    8048eda <secret_phase+0x32>
 8048ed5:	e8 6d 03 00 00       	call   8049247 <explode_bomb>
 8048eda:	89 5c 24 04          	mov    %ebx,0x4(%esp)
 8048ede:	c7 04 24 a0 b1 04 08 	movl   $0x804b1a0,(%esp)
 8048ee5:	e8 6d ff ff ff       	call   8048e57 <fun7>
 8048eea:	83 f8 03             	cmp    $0x3,%eax
 8048eed:	74 05                	je     8048ef4 <secret_phase+0x4c>
 8048eef:	e8 53 03 00 00       	call   8049247 <explode_bomb>
 8048ef4:	c7 04 24 40 a2 04 08 	movl   $0x804a240,(%esp)
 8048efb:	e8 c0 f8 ff ff       	call   80487c0 <puts@plt>
 8048f00:	e8 dd 04 00 00       	call   80493e2 <phase_defused>
 8048f05:	83 c4 18             	add    $0x18,%esp
 8048f08:	5b                   	pop    %ebx
 8048f09:	c3                   	ret    
 8048f0a:	66 0f 1f 44 00 00    	nopw   0x0(%eax,%eax,1)

08048f10 <sig_handler>:
 8048f10:	83 ec 1c             	sub    $0x1c,%esp
 8048f13:	c7 04 24 a0 a2 04 08 	movl   $0x804a2a0,(%esp)
 8048f1a:	e8 a1 f8 ff ff       	call   80487c0 <puts@plt>
 8048f1f:	c7 04 24 03 00 00 00 	movl   $0x3,(%esp)
 8048f26:	e8 35 f8 ff ff       	call   8048760 <sleep@plt>
 8048f2b:	c7 04 24 5d a4 04 08 	movl   $0x804a45d,(%esp)
 8048f32:	e8 d9 f7 ff ff       	call   8048710 <printf@plt>
 8048f37:	a1 e0 b8 04 08       	mov    0x804b8e0,%eax
 8048f3c:	89 04 24             	mov    %eax,(%esp)
 8048f3f:	e8 dc f7 ff ff       	call   8048720 <fflush@plt>
 8048f44:	c7 04 24 01 00 00 00 	movl   $0x1,(%esp)
 8048f4b:	e8 10 f8 ff ff       	call   8048760 <sleep@plt>
 8048f50:	c7 04 24 65 a4 04 08 	movl   $0x804a465,(%esp)
 8048f57:	e8 64 f8 ff ff       	call   80487c0 <puts@plt>
 8048f5c:	c7 04 24 10 00 00 00 	movl   $0x10,(%esp)
 8048f63:	e8 78 f8 ff ff       	call   80487e0 <exit@plt>

08048f68 <invalid_phase>:
 8048f68:	83 ec 1c             	sub    $0x1c,%esp
 8048f6b:	8b 44 24 20          	mov    0x20(%esp),%eax
 8048f6f:	89 44 24 04          	mov    %eax,0x4(%esp)
 8048f73:	c7 04 24 6d a4 04 08 	movl   $0x804a46d,(%esp)
 8048f7a:	e8 91 f7 ff ff       	call   8048710 <printf@plt>
 8048f7f:	c7 04 24 08 00 00 00 	movl   $0x8,(%esp)
 8048f86:	e8 55 f8 ff ff       	call   80487e0 <exit@plt>

08048f8b <string_length>:
 8048f8b:	8b 54 24 04          	mov    0x4(%esp),%edx
 8048f8f:	80 3a 00             	cmpb   $0x0,(%edx)
 8048f92:	74 10                	je     8048fa4 <string_length+0x19>
 8048f94:	b8 00 00 00 00       	mov    $0x0,%eax
 8048f99:	83 c0 01             	add    $0x1,%eax
 8048f9c:	80 3c 02 00          	cmpb   $0x0,(%edx,%eax,1)
 8048fa0:	75 f7                	jne    8048f99 <string_length+0xe>
 8048fa2:	f3 c3                	repz ret 
 8048fa4:	b8 00 00 00 00       	mov    $0x0,%eax
 8048fa9:	c3                   	ret    

08048faa <strings_not_equal>:
 8048faa:	57                   	push   %edi
 8048fab:	56                   	push   %esi
 8048fac:	53                   	push   %ebx
 8048fad:	83 ec 04             	sub    $0x4,%esp
 8048fb0:	8b 5c 24 14          	mov    0x14(%esp),%ebx
 8048fb4:	8b 74 24 18          	mov    0x18(%esp),%esi
 8048fb8:	89 1c 24             	mov    %ebx,(%esp)
 8048fbb:	e8 cb ff ff ff       	call   8048f8b <string_length>
 8048fc0:	89 c7                	mov    %eax,%edi
 8048fc2:	89 34 24             	mov    %esi,(%esp)
 8048fc5:	e8 c1 ff ff ff       	call   8048f8b <string_length>
 8048fca:	ba 01 00 00 00       	mov    $0x1,%edx
 8048fcf:	39 c7                	cmp    %eax,%edi
 8048fd1:	75 3c                	jne    804900f <strings_not_equal+0x65>
 8048fd3:	0f b6 03             	movzbl (%ebx),%eax
 8048fd6:	84 c0                	test   %al,%al
 8048fd8:	74 22                	je     8048ffc <strings_not_equal+0x52>
 8048fda:	3a 06                	cmp    (%esi),%al
 8048fdc:	75 25                	jne    8049003 <strings_not_equal+0x59>
 8048fde:	89 f2                	mov    %esi,%edx
 8048fe0:	89 d8                	mov    %ebx,%eax
 8048fe2:	eb 04                	jmp    8048fe8 <strings_not_equal+0x3e>
 8048fe4:	3a 0a                	cmp    (%edx),%cl
 8048fe6:	75 22                	jne    804900a <strings_not_equal+0x60>
 8048fe8:	83 c0 01             	add    $0x1,%eax
 8048feb:	83 c2 01             	add    $0x1,%edx
 8048fee:	0f b6 08             	movzbl (%eax),%ecx
 8048ff1:	84 c9                	test   %cl,%cl
 8048ff3:	75 ef                	jne    8048fe4 <strings_not_equal+0x3a>
 8048ff5:	ba 00 00 00 00       	mov    $0x0,%edx
 8048ffa:	eb 13                	jmp    804900f <strings_not_equal+0x65>
 8048ffc:	ba 00 00 00 00       	mov    $0x0,%edx
 8049001:	eb 0c                	jmp    804900f <strings_not_equal+0x65>
 8049003:	ba 01 00 00 00       	mov    $0x1,%edx
 8049008:	eb 05                	jmp    804900f <strings_not_equal+0x65>
 804900a:	ba 01 00 00 00       	mov    $0x1,%edx
 804900f:	89 d0                	mov    %edx,%eax
 8049011:	83 c4 04             	add    $0x4,%esp
 8049014:	5b                   	pop    %ebx
 8049015:	5e                   	pop    %esi
 8049016:	5f                   	pop    %edi
 8049017:	c3                   	ret    

08049018 <initialize_bomb>:
 8049018:	56                   	push   %esi
 8049019:	53                   	push   %ebx
 804901a:	81 ec 54 20 00 00    	sub    $0x2054,%esp
 8049020:	c7 44 24 04 10 8f 04 	movl   $0x8048f10,0x4(%esp)
 8049027:	08 
 8049028:	c7 04 24 02 00 00 00 	movl   $0x2,(%esp)
 804902f:	e8 1c f7 ff ff       	call   8048750 <signal@plt>
 8049034:	c7 44 24 04 40 00 00 	movl   $0x40,0x4(%esp)
 804903b:	00 
 804903c:	8d 84 24 10 20 00 00 	lea    0x2010(%esp),%eax
 8049043:	89 04 24             	mov    %eax,(%esp)
 8049046:	e8 55 f7 ff ff       	call   80487a0 <gethostname@plt>
 804904b:	85 c0                	test   %eax,%eax
 804904d:	75 17                	jne    8049066 <initialize_bomb+0x4e>
 804904f:	a1 c0 b6 04 08       	mov    0x804b6c0,%eax
 8049054:	bb 00 00 00 00       	mov    $0x0,%ebx
 8049059:	8d b4 24 10 20 00 00 	lea    0x2010(%esp),%esi
 8049060:	85 c0                	test   %eax,%eax
 8049062:	75 1a                	jne    804907e <initialize_bomb+0x66>
 8049064:	eb 58                	jmp    80490be <initialize_bomb+0xa6>
 8049066:	c7 04 24 d8 a2 04 08 	movl   $0x804a2d8,(%esp)
 804906d:	e8 4e f7 ff ff       	call   80487c0 <puts@plt>
 8049072:	c7 04 24 08 00 00 00 	movl   $0x8,(%esp)
 8049079:	e8 62 f7 ff ff       	call   80487e0 <exit@plt>
 804907e:	89 74 24 04          	mov    %esi,0x4(%esp)
 8049082:	89 04 24             	mov    %eax,(%esp)
 8049085:	e8 96 f7 ff ff       	call   8048820 <strcasecmp@plt>
 804908a:	85 c0                	test   %eax,%eax
 804908c:	74 48                	je     80490d6 <initialize_bomb+0xbe>
 804908e:	83 c3 01             	add    $0x1,%ebx
 8049091:	8b 04 9d c0 b6 04 08 	mov    0x804b6c0(,%ebx,4),%eax
 8049098:	85 c0                	test   %eax,%eax
 804909a:	75 e2                	jne    804907e <initialize_bomb+0x66>
 804909c:	eb 20                	jmp    80490be <initialize_bomb+0xa6>
 804909e:	8d 44 24 10          	lea    0x10(%esp),%eax
 80490a2:	89 44 24 04          	mov    %eax,0x4(%esp)
 80490a6:	c7 04 24 7e a4 04 08 	movl   $0x804a47e,(%esp)
 80490ad:	e8 5e f6 ff ff       	call   8048710 <printf@plt>
 80490b2:	c7 04 24 08 00 00 00 	movl   $0x8,(%esp)
 80490b9:	e8 22 f7 ff ff       	call   80487e0 <exit@plt>
 80490be:	c7 04 24 10 a3 04 08 	movl   $0x804a310,(%esp)
 80490c5:	e8 f6 f6 ff ff       	call   80487c0 <puts@plt>
 80490ca:	c7 04 24 08 00 00 00 	movl   $0x8,(%esp)
 80490d1:	e8 0a f7 ff ff       	call   80487e0 <exit@plt>
 80490d6:	8d 44 24 10          	lea    0x10(%esp),%eax
 80490da:	89 04 24             	mov    %eax,(%esp)
 80490dd:	e8 02 0d 00 00       	call   8049de4 <init_driver>
 80490e2:	85 c0                	test   %eax,%eax
 80490e4:	78 b8                	js     804909e <initialize_bomb+0x86>
 80490e6:	81 c4 54 20 00 00    	add    $0x2054,%esp
 80490ec:	5b                   	pop    %ebx
 80490ed:	5e                   	pop    %esi
 80490ee:	c3                   	ret    

080490ef <initialize_bomb_solve>:
 80490ef:	f3 c3                	repz ret 

080490f1 <blank_line>:
 80490f1:	56                   	push   %esi
 80490f2:	53                   	push   %ebx
 80490f3:	83 ec 04             	sub    $0x4,%esp
 80490f6:	8b 5c 24 10          	mov    0x10(%esp),%ebx
 80490fa:	eb 16                	jmp    8049112 <blank_line+0x21>
 80490fc:	e8 bf f7 ff ff       	call   80488c0 <__ctype_b_loc@plt>
 8049101:	83 c3 01             	add    $0x1,%ebx
 8049104:	89 f2                	mov    %esi,%edx
 8049106:	0f be f2             	movsbl %dl,%esi
 8049109:	8b 00                	mov    (%eax),%eax
 804910b:	f6 44 70 01 20       	testb  $0x20,0x1(%eax,%esi,2)
 8049110:	74 10                	je     8049122 <blank_line+0x31>
 8049112:	0f b6 33             	movzbl (%ebx),%esi
 8049115:	89 f0                	mov    %esi,%eax
 8049117:	84 c0                	test   %al,%al
 8049119:	75 e1                	jne    80490fc <blank_line+0xb>
 804911b:	b8 01 00 00 00       	mov    $0x1,%eax
 8049120:	eb 05                	jmp    8049127 <blank_line+0x36>
 8049122:	b8 00 00 00 00       	mov    $0x0,%eax
 8049127:	83 c4 04             	add    $0x4,%esp
 804912a:	5b                   	pop    %ebx
 804912b:	5e                   	pop    %esi
 804912c:	c3                   	ret    

0804912d <skip>:
 804912d:	53                   	push   %ebx
 804912e:	83 ec 18             	sub    $0x18,%esp
 8049131:	a1 ec b8 04 08       	mov    0x804b8ec,%eax
 8049136:	89 44 24 08          	mov    %eax,0x8(%esp)
 804913a:	c7 44 24 04 50 00 00 	movl   $0x50,0x4(%esp)
 8049141:	00 
 8049142:	a1 e8 b8 04 08       	mov    0x804b8e8,%eax
 8049147:	8d 04 80             	lea    (%eax,%eax,4),%eax
 804914a:	c1 e0 04             	shl    $0x4,%eax
 804914d:	05 00 b9 04 08       	add    $0x804b900,%eax
 8049152:	89 04 24             	mov    %eax,(%esp)
 8049155:	e8 e6 f5 ff ff       	call   8048740 <fgets@plt>
 804915a:	89 c3                	mov    %eax,%ebx
 804915c:	85 c0                	test   %eax,%eax
 804915e:	74 0c                	je     804916c <skip+0x3f>
 8049160:	89 04 24             	mov    %eax,(%esp)
 8049163:	e8 89 ff ff ff       	call   80490f1 <blank_line>
 8049168:	85 c0                	test   %eax,%eax
 804916a:	75 c5                	jne    8049131 <skip+0x4>
 804916c:	89 d8                	mov    %ebx,%eax
 804916e:	83 c4 18             	add    $0x18,%esp
 8049171:	5b                   	pop    %ebx
 8049172:	c3                   	ret    

08049173 <send_msg>:
 8049173:	57                   	push   %edi
 8049174:	53                   	push   %ebx
 8049175:	81 ec 24 40 00 00    	sub    $0x4024,%esp
 804917b:	8b 15 e8 b8 04 08    	mov    0x804b8e8,%edx
 8049181:	8d 5c 92 fb          	lea    -0x5(%edx,%edx,4),%ebx
 8049185:	c1 e3 04             	shl    $0x4,%ebx
 8049188:	81 c3 00 b9 04 08    	add    $0x804b900,%ebx
 804918e:	89 df                	mov    %ebx,%edi
 8049190:	b8 00 00 00 00       	mov    $0x0,%eax
 8049195:	b9 ff ff ff ff       	mov    $0xffffffff,%ecx
 804919a:	f2 ae                	repnz scas %es:(%edi),%al
 804919c:	f7 d1                	not    %ecx
 804919e:	83 c1 63             	add    $0x63,%ecx
 80491a1:	81 f9 00 20 00 00    	cmp    $0x2000,%ecx
 80491a7:	76 18                	jbe    80491c1 <send_msg+0x4e>
 80491a9:	c7 04 24 48 a3 04 08 	movl   $0x804a348,(%esp)
 80491b0:	e8 5b f5 ff ff       	call   8048710 <printf@plt>
 80491b5:	c7 04 24 08 00 00 00 	movl   $0x8,(%esp)
 80491bc:	e8 1f f6 ff ff       	call   80487e0 <exit@plt>
 80491c1:	83 bc 24 30 40 00 00 	cmpl   $0x0,0x4030(%esp)
 80491c8:	00 
 80491c9:	b8 98 a4 04 08       	mov    $0x804a498,%eax
 80491ce:	b9 a0 a4 04 08       	mov    $0x804a4a0,%ecx
 80491d3:	0f 44 c1             	cmove  %ecx,%eax
 80491d6:	89 5c 24 14          	mov    %ebx,0x14(%esp)
 80491da:	89 54 24 10          	mov    %edx,0x10(%esp)
 80491de:	89 44 24 0c          	mov    %eax,0xc(%esp)
 80491e2:	a1 a0 b6 04 08       	mov    0x804b6a0,%eax
 80491e7:	89 44 24 08          	mov    %eax,0x8(%esp)
 80491eb:	c7 44 24 04 a9 a4 04 	movl   $0x804a4a9,0x4(%esp)
 80491f2:	08 
 80491f3:	8d 9c 24 20 20 00 00 	lea    0x2020(%esp),%ebx
 80491fa:	89 1c 24             	mov    %ebx,(%esp)
 80491fd:	e8 5e f6 ff ff       	call   8048860 <sprintf@plt>
 8049202:	8d 44 24 20          	lea    0x20(%esp),%eax
 8049206:	89 44 24 0c          	mov    %eax,0xc(%esp)
 804920a:	c7 44 24 08 00 00 00 	movl   $0x0,0x8(%esp)
 8049211:	00 
 8049212:	89 5c 24 04          	mov    %ebx,0x4(%esp)
 8049216:	c7 04 24 a0 b2 04 08 	movl   $0x804b2a0,(%esp)
 804921d:	e8 9a 0d 00 00       	call   8049fbc <driver_post>
 8049222:	85 c0                	test   %eax,%eax
 8049224:	79 18                	jns    804923e <send_msg+0xcb>
 8049226:	8d 44 24 20          	lea    0x20(%esp),%eax
 804922a:	89 04 24             	mov    %eax,(%esp)
 804922d:	e8 8e f5 ff ff       	call   80487c0 <puts@plt>
 8049232:	c7 04 24 00 00 00 00 	movl   $0x0,(%esp)
 8049239:	e8 a2 f5 ff ff       	call   80487e0 <exit@plt>
 804923e:	81 c4 24 40 00 00    	add    $0x4024,%esp
 8049244:	5b                   	pop    %ebx
 8049245:	5f                   	pop    %edi
 8049246:	c3                   	ret    

08049247 <explode_bomb>:
 8049247:	83 ec 1c             	sub    $0x1c,%esp
 804924a:	c7 04 24 b5 a4 04 08 	movl   $0x804a4b5,(%esp)
 8049251:	e8 6a f5 ff ff       	call   80487c0 <puts@plt>
 8049256:	c7 04 24 be a4 04 08 	movl   $0x804a4be,(%esp)
 804925d:	e8 5e f5 ff ff       	call   80487c0 <puts@plt>
 8049262:	c7 04 24 00 00 00 00 	movl   $0x0,(%esp)
 8049269:	e8 05 ff ff ff       	call   8049173 <send_msg>
 804926e:	c7 04 24 6c a3 04 08 	movl   $0x804a36c,(%esp)
 8049275:	e8 46 f5 ff ff       	call   80487c0 <puts@plt>
 804927a:	c7 04 24 08 00 00 00 	movl   $0x8,(%esp)
 8049281:	e8 5a f5 ff ff       	call   80487e0 <exit@plt>

08049286 <read_line>:
 8049286:	83 ec 1c             	sub    $0x1c,%esp
 8049289:	89 5c 24 10          	mov    %ebx,0x10(%esp)
 804928d:	89 74 24 14          	mov    %esi,0x14(%esp)
 8049291:	89 7c 24 18          	mov    %edi,0x18(%esp)
 8049295:	e8 93 fe ff ff       	call   804912d <skip>
 804929a:	85 c0                	test   %eax,%eax
 804929c:	75 6c                	jne    804930a <read_line+0x84>
 804929e:	a1 c4 b8 04 08       	mov    0x804b8c4,%eax
 80492a3:	39 05 ec b8 04 08    	cmp    %eax,0x804b8ec
 80492a9:	75 18                	jne    80492c3 <read_line+0x3d>
 80492ab:	c7 04 24 d5 a4 04 08 	movl   $0x804a4d5,(%esp)
 80492b2:	e8 09 f5 ff ff       	call   80487c0 <puts@plt>
 80492b7:	c7 04 24 08 00 00 00 	movl   $0x8,(%esp)
 80492be:	e8 1d f5 ff ff       	call   80487e0 <exit@plt>
 80492c3:	c7 04 24 f3 a4 04 08 	movl   $0x804a4f3,(%esp)
 80492ca:	e8 e1 f4 ff ff       	call   80487b0 <getenv@plt>
 80492cf:	85 c0                	test   %eax,%eax
 80492d1:	74 0c                	je     80492df <read_line+0x59>
 80492d3:	c7 04 24 00 00 00 00 	movl   $0x0,(%esp)
 80492da:	e8 01 f5 ff ff       	call   80487e0 <exit@plt>
 80492df:	a1 c4 b8 04 08       	mov    0x804b8c4,%eax
 80492e4:	a3 ec b8 04 08       	mov    %eax,0x804b8ec
 80492e9:	e8 3f fe ff ff       	call   804912d <skip>
 80492ee:	85 c0                	test   %eax,%eax
 80492f0:	75 18                	jne    804930a <read_line+0x84>
 80492f2:	c7 04 24 d5 a4 04 08 	movl   $0x804a4d5,(%esp)
 80492f9:	e8 c2 f4 ff ff       	call   80487c0 <puts@plt>
 80492fe:	c7 04 24 00 00 00 00 	movl   $0x0,(%esp)
 8049305:	e8 d6 f4 ff ff       	call   80487e0 <exit@plt>
 804930a:	8b 15 e8 b8 04 08    	mov    0x804b8e8,%edx
 8049310:	8d 1c 92             	lea    (%edx,%edx,4),%ebx
 8049313:	c1 e3 04             	shl    $0x4,%ebx
 8049316:	81 c3 00 b9 04 08    	add    $0x804b900,%ebx
 804931c:	89 df                	mov    %ebx,%edi
 804931e:	b8 00 00 00 00       	mov    $0x0,%eax
 8049323:	b9 ff ff ff ff       	mov    $0xffffffff,%ecx
 8049328:	f2 ae                	repnz scas %es:(%edi),%al
 804932a:	f7 d1                	not    %ecx
 804932c:	83 e9 01             	sub    $0x1,%ecx
 804932f:	83 f9 4e             	cmp    $0x4e,%ecx
 8049332:	7e 35                	jle    8049369 <read_line+0xe3>
 8049334:	c7 04 24 fe a4 04 08 	movl   $0x804a4fe,(%esp)
 804933b:	e8 80 f4 ff ff       	call   80487c0 <puts@plt>
 8049340:	a1 e8 b8 04 08       	mov    0x804b8e8,%eax
 8049345:	8d 50 01             	lea    0x1(%eax),%edx
 8049348:	89 15 e8 b8 04 08    	mov    %edx,0x804b8e8
 804934e:	6b c0 50             	imul   $0x50,%eax,%eax
 8049351:	05 00 b9 04 08       	add    $0x804b900,%eax
 8049356:	be 19 a5 04 08       	mov    $0x804a519,%esi
 804935b:	b9 04 00 00 00       	mov    $0x4,%ecx
 8049360:	89 c7                	mov    %eax,%edi
 8049362:	f3 a5                	rep movsl %ds:(%esi),%es:(%edi)
 8049364:	e8 de fe ff ff       	call   8049247 <explode_bomb>
 8049369:	8d 04 92             	lea    (%edx,%edx,4),%eax
 804936c:	c1 e0 04             	shl    $0x4,%eax
 804936f:	c6 84 01 ff b8 04 08 	movb   $0x0,0x804b8ff(%ecx,%eax,1)
 8049376:	00 
 8049377:	83 c2 01             	add    $0x1,%edx
 804937a:	89 15 e8 b8 04 08    	mov    %edx,0x804b8e8
 8049380:	89 d8                	mov    %ebx,%eax
 8049382:	8b 5c 24 10          	mov    0x10(%esp),%ebx
 8049386:	8b 74 24 14          	mov    0x14(%esp),%esi
 804938a:	8b 7c 24 18          	mov    0x18(%esp),%edi
 804938e:	83 c4 1c             	add    $0x1c,%esp
 8049391:	c3                   	ret    

08049392 <read_six_numbers>:
 8049392:	83 ec 2c             	sub    $0x2c,%esp
 8049395:	8b 44 24 34          	mov    0x34(%esp),%eax
 8049399:	8d 50 14             	lea    0x14(%eax),%edx
 804939c:	89 54 24 1c          	mov    %edx,0x1c(%esp)
 80493a0:	8d 50 10             	lea    0x10(%eax),%edx
 80493a3:	89 54 24 18          	mov    %edx,0x18(%esp)
 80493a7:	8d 50 0c             	lea    0xc(%eax),%edx
 80493aa:	89 54 24 14          	mov    %edx,0x14(%esp)
 80493ae:	8d 50 08             	lea    0x8(%eax),%edx
 80493b1:	89 54 24 10          	mov    %edx,0x10(%esp)
 80493b5:	8d 50 04             	lea    0x4(%eax),%edx
 80493b8:	89 54 24 0c          	mov    %edx,0xc(%esp)
 80493bc:	89 44 24 08          	mov    %eax,0x8(%esp)
 80493c0:	c7 44 24 04 29 a5 04 	movl   $0x804a529,0x4(%esp)
 80493c7:	08 
 80493c8:	8b 44 24 30          	mov    0x30(%esp),%eax
 80493cc:	89 04 24             	mov    %eax,(%esp)
 80493cf:	e8 5c f4 ff ff       	call   8048830 <__isoc99_sscanf@plt>
 80493d4:	83 f8 05             	cmp    $0x5,%eax
 80493d7:	7f 05                	jg     80493de <read_six_numbers+0x4c>
 80493d9:	e8 69 fe ff ff       	call   8049247 <explode_bomb>
 80493de:	83 c4 2c             	add    $0x2c,%esp
 80493e1:	c3                   	ret    

080493e2 <phase_defused>:
 80493e2:	81 ec 8c 00 00 00    	sub    $0x8c,%esp
 80493e8:	c7 04 24 01 00 00 00 	movl   $0x1,(%esp)
 80493ef:	e8 7f fd ff ff       	call   8049173 <send_msg>
 80493f4:	83 3d e8 b8 04 08 06 	cmpl   $0x6,0x804b8e8
 80493fb:	75 7e                	jne    804947b <phase_defused+0x99>
 80493fd:	8d 44 24 30          	lea    0x30(%esp),%eax
 8049401:	89 44 24 10          	mov    %eax,0x10(%esp)
 8049405:	8d 44 24 28          	lea    0x28(%esp),%eax
 8049409:	89 44 24 0c          	mov    %eax,0xc(%esp)
 804940d:	8d 44 24 2c          	lea    0x2c(%esp),%eax
 8049411:	89 44 24 08          	mov    %eax,0x8(%esp)
 8049415:	c7 44 24 04 3b a5 04 	movl   $0x804a53b,0x4(%esp)
 804941c:	08 
 804941d:	c7 04 24 f0 b9 04 08 	movl   $0x804b9f0,(%esp)
 8049424:	e8 07 f4 ff ff       	call   8048830 <__isoc99_sscanf@plt>
 8049429:	83 f8 03             	cmp    $0x3,%eax
 804942c:	75 35                	jne    8049463 <phase_defused+0x81>
 804942e:	c7 44 24 04 44 a5 04 	movl   $0x804a544,0x4(%esp)
 8049435:	08 
 8049436:	8d 44 24 30          	lea    0x30(%esp),%eax
 804943a:	89 04 24             	mov    %eax,(%esp)
 804943d:	e8 68 fb ff ff       	call   8048faa <strings_not_equal>
 8049442:	85 c0                	test   %eax,%eax
 8049444:	75 1d                	jne    8049463 <phase_defused+0x81>
 8049446:	c7 04 24 90 a3 04 08 	movl   $0x804a390,(%esp)
 804944d:	e8 6e f3 ff ff       	call   80487c0 <puts@plt>
 8049452:	c7 04 24 b8 a3 04 08 	movl   $0x804a3b8,(%esp)
 8049459:	e8 62 f3 ff ff       	call   80487c0 <puts@plt>
 804945e:	e8 45 fa ff ff       	call   8048ea8 <secret_phase>
 8049463:	c7 04 24 f0 a3 04 08 	movl   $0x804a3f0,(%esp)
 804946a:	e8 51 f3 ff ff       	call   80487c0 <puts@plt>
 804946f:	c7 04 24 1c a4 04 08 	movl   $0x804a41c,(%esp)
 8049476:	e8 45 f3 ff ff       	call   80487c0 <puts@plt>
 804947b:	81 c4 8c 00 00 00    	add    $0x8c,%esp
 8049481:	c3                   	ret    
 8049482:	66 2e 0f 1f 84 00 00 	nopw   %cs:0x0(%eax,%eax,1)
 8049489:	00 00 00 
 804948c:	0f 1f 40 00          	nopl   0x0(%eax)

08049490 <rio_readlineb>:
 8049490:	55                   	push   %ebp
 8049491:	57                   	push   %edi
 8049492:	56                   	push   %esi
 8049493:	53                   	push   %ebx
 8049494:	83 ec 3c             	sub    $0x3c,%esp
 8049497:	83 f9 01             	cmp    $0x1,%ecx
 804949a:	0f 86 cd 00 00 00    	jbe    804956d <rio_readlineb+0xdd>
 80494a0:	89 c3                	mov    %eax,%ebx
 80494a2:	89 4c 24 1c          	mov    %ecx,0x1c(%esp)
 80494a6:	89 54 24 10          	mov    %edx,0x10(%esp)
 80494aa:	bd 01 00 00 00       	mov    $0x1,%ebp
 80494af:	8d 78 0c             	lea    0xc(%eax),%edi
 80494b2:	eb 38                	jmp    80494ec <rio_readlineb+0x5c>
 80494b4:	c7 44 24 08 00 20 00 	movl   $0x2000,0x8(%esp)
 80494bb:	00 
 80494bc:	89 7c 24 04          	mov    %edi,0x4(%esp)
 80494c0:	8b 03                	mov    (%ebx),%eax
 80494c2:	89 04 24             	mov    %eax,(%esp)
 80494c5:	e8 36 f2 ff ff       	call   8048700 <read@plt>
 80494ca:	89 43 04             	mov    %eax,0x4(%ebx)
 80494cd:	85 c0                	test   %eax,%eax
 80494cf:	79 14                	jns    80494e5 <rio_readlineb+0x55>
 80494d1:	e8 7a f3 ff ff       	call   8048850 <__errno_location@plt>
 80494d6:	83 38 04             	cmpl   $0x4,(%eax)
 80494d9:	74 11                	je     80494ec <rio_readlineb+0x5c>
 80494db:	90                   	nop
 80494dc:	8d 74 26 00          	lea    0x0(%esi,%eiz,1),%esi
 80494e0:	e9 9a 00 00 00       	jmp    804957f <rio_readlineb+0xef>
 80494e5:	85 c0                	test   %eax,%eax
 80494e7:	74 6d                	je     8049556 <rio_readlineb+0xc6>
 80494e9:	89 7b 08             	mov    %edi,0x8(%ebx)
 80494ec:	8b 73 04             	mov    0x4(%ebx),%esi
 80494ef:	85 f6                	test   %esi,%esi
 80494f1:	7e c1                	jle    80494b4 <rio_readlineb+0x24>
 80494f3:	85 f6                	test   %esi,%esi
 80494f5:	0f 95 c0             	setne  %al
 80494f8:	0f b6 c0             	movzbl %al,%eax
 80494fb:	89 44 24 14          	mov    %eax,0x14(%esp)
 80494ff:	8b 53 08             	mov    0x8(%ebx),%edx
 8049502:	89 54 24 18          	mov    %edx,0x18(%esp)
 8049506:	89 44 24 08          	mov    %eax,0x8(%esp)
 804950a:	89 54 24 04          	mov    %edx,0x4(%esp)
 804950e:	8d 44 24 2f          	lea    0x2f(%esp),%eax
 8049512:	89 04 24             	mov    %eax,(%esp)
 8049515:	e8 16 f2 ff ff       	call   8048730 <memcpy@plt>
 804951a:	8b 44 24 18          	mov    0x18(%esp),%eax
 804951e:	03 44 24 14          	add    0x14(%esp),%eax
 8049522:	89 43 08             	mov    %eax,0x8(%ebx)
 8049525:	2b 74 24 14          	sub    0x14(%esp),%esi
 8049529:	89 73 04             	mov    %esi,0x4(%ebx)
 804952c:	83 7c 24 14 01       	cmpl   $0x1,0x14(%esp)
 8049531:	75 18                	jne    804954b <rio_readlineb+0xbb>
 8049533:	0f b6 44 24 2f       	movzbl 0x2f(%esp),%eax
 8049538:	8b 54 24 10          	mov    0x10(%esp),%edx
 804953c:	88 02                	mov    %al,(%edx)
 804953e:	83 c2 01             	add    $0x1,%edx
 8049541:	89 54 24 10          	mov    %edx,0x10(%esp)
 8049545:	3c 0a                	cmp    $0xa,%al
 8049547:	75 19                	jne    8049562 <rio_readlineb+0xd2>
 8049549:	eb 2b                	jmp    8049576 <rio_readlineb+0xe6>
 804954b:	83 7c 24 14 00       	cmpl   $0x0,0x14(%esp)
 8049550:	75 34                	jne    8049586 <rio_readlineb+0xf6>
 8049552:	89 e8                	mov    %ebp,%eax
 8049554:	eb 02                	jmp    8049558 <rio_readlineb+0xc8>
 8049556:	89 e8                	mov    %ebp,%eax
 8049558:	83 f8 01             	cmp    $0x1,%eax
 804955b:	75 19                	jne    8049576 <rio_readlineb+0xe6>
 804955d:	8d 76 00             	lea    0x0(%esi),%esi
 8049560:	eb 2b                	jmp    804958d <rio_readlineb+0xfd>
 8049562:	83 c5 01             	add    $0x1,%ebp
 8049565:	3b 6c 24 1c          	cmp    0x1c(%esp),%ebp
 8049569:	75 81                	jne    80494ec <rio_readlineb+0x5c>
 804956b:	eb 09                	jmp    8049576 <rio_readlineb+0xe6>
 804956d:	89 54 24 10          	mov    %edx,0x10(%esp)
 8049571:	bd 01 00 00 00       	mov    $0x1,%ebp
 8049576:	8b 44 24 10          	mov    0x10(%esp),%eax
 804957a:	c6 00 00             	movb   $0x0,(%eax)
 804957d:	eb 13                	jmp    8049592 <rio_readlineb+0x102>
 804957f:	bd ff ff ff ff       	mov    $0xffffffff,%ebp
 8049584:	eb 0c                	jmp    8049592 <rio_readlineb+0x102>
 8049586:	bd ff ff ff ff       	mov    $0xffffffff,%ebp
 804958b:	eb 05                	jmp    8049592 <rio_readlineb+0x102>
 804958d:	bd 00 00 00 00       	mov    $0x0,%ebp
 8049592:	89 e8                	mov    %ebp,%eax
 8049594:	83 c4 3c             	add    $0x3c,%esp
 8049597:	5b                   	pop    %ebx
 8049598:	5e                   	pop    %esi
 8049599:	5f                   	pop    %edi
 804959a:	5d                   	pop    %ebp
 804959b:	c3                   	ret    

0804959c <sigalrm_handler>:
 804959c:	83 ec 1c             	sub    $0x1c,%esp
 804959f:	c7 44 24 08 00 00 00 	movl   $0x0,0x8(%esp)
 80495a6:	00 
 80495a7:	c7 44 24 04 54 a6 04 	movl   $0x804a654,0x4(%esp)
 80495ae:	08 
 80495af:	a1 c0 b8 04 08       	mov    0x804b8c0,%eax
 80495b4:	89 04 24             	mov    %eax,(%esp)
 80495b7:	e8 44 f2 ff ff       	call   8048800 <fprintf@plt>
 80495bc:	c7 04 24 01 00 00 00 	movl   $0x1,(%esp)
 80495c3:	e8 18 f2 ff ff       	call   80487e0 <exit@plt>

080495c8 <submitr>:
 80495c8:	55                   	push   %ebp
 80495c9:	57                   	push   %edi
 80495ca:	56                   	push   %esi
 80495cb:	53                   	push   %ebx
 80495cc:	81 ec 6c a0 00 00    	sub    $0xa06c,%esp
 80495d2:	8b 9c 24 94 a0 00 00 	mov    0xa094(%esp),%ebx
 80495d9:	c7 84 24 40 20 00 00 	movl   $0x0,0x2040(%esp)
 80495e0:	00 00 00 00 
 80495e4:	c7 44 24 08 00 00 00 	movl   $0x0,0x8(%esp)
 80495eb:	00 
 80495ec:	c7 44 24 04 01 00 00 	movl   $0x1,0x4(%esp)
 80495f3:	00 
 80495f4:	c7 04 24 02 00 00 00 	movl   $0x2,(%esp)
 80495fb:	e8 70 f2 ff ff       	call   8048870 <socket@plt>
 8049600:	89 c5                	mov    %eax,%ebp
 8049602:	85 c0                	test   %eax,%eax
 8049604:	79 55                	jns    804965b <submitr+0x93>
 8049606:	8b 84 24 98 a0 00 00 	mov    0xa098(%esp),%eax
 804960d:	c7 00 45 72 72 6f    	movl   $0x6f727245,(%eax)
 8049613:	c7 40 04 72 3a 20 43 	movl   $0x43203a72,0x4(%eax)
 804961a:	c7 40 08 6c 69 65 6e 	movl   $0x6e65696c,0x8(%eax)
 8049621:	c7 40 0c 74 20 75 6e 	movl   $0x6e752074,0xc(%eax)
 8049628:	c7 40 10 61 62 6c 65 	movl   $0x656c6261,0x10(%eax)
 804962f:	c7 40 14 20 74 6f 20 	movl   $0x206f7420,0x14(%eax)
 8049636:	c7 40 18 63 72 65 61 	movl   $0x61657263,0x18(%eax)
 804963d:	c7 40 1c 74 65 20 73 	movl   $0x73206574,0x1c(%eax)
 8049644:	c7 40 20 6f 63 6b 65 	movl   $0x656b636f,0x20(%eax)
 804964b:	66 c7 40 24 74 00    	movw   $0x74,0x24(%eax)
 8049651:	b8 ff ff ff ff       	mov    $0xffffffff,%eax
 8049656:	e9 47 07 00 00       	jmp    8049da2 <submitr+0x7da>
 804965b:	8b 84 24 80 a0 00 00 	mov    0xa080(%esp),%eax
 8049662:	89 04 24             	mov    %eax,(%esp)
 8049665:	e8 16 f2 ff ff       	call   8048880 <gethostbyname@plt>
 804966a:	85 c0                	test   %eax,%eax
 804966c:	75 6f                	jne    80496dd <submitr+0x115>
 804966e:	8b 94 24 98 a0 00 00 	mov    0xa098(%esp),%edx
 8049675:	c7 02 45 72 72 6f    	movl   $0x6f727245,(%edx)
 804967b:	c7 42 04 72 3a 20 44 	movl   $0x44203a72,0x4(%edx)
 8049682:	c7 42 08 4e 53 20 69 	movl   $0x6920534e,0x8(%edx)
 8049689:	c7 42 0c 73 20 75 6e 	movl   $0x6e752073,0xc(%edx)
 8049690:	c7 42 10 61 62 6c 65 	movl   $0x656c6261,0x10(%edx)
 8049697:	c7 42 14 20 74 6f 20 	movl   $0x206f7420,0x14(%edx)
 804969e:	c7 42 18 72 65 73 6f 	movl   $0x6f736572,0x18(%edx)
 80496a5:	c7 42 1c 6c 76 65 20 	movl   $0x2065766c,0x1c(%edx)
 80496ac:	c7 42 20 73 65 72 76 	movl   $0x76726573,0x20(%edx)
 80496b3:	c7 42 24 65 72 20 61 	movl   $0x61207265,0x24(%edx)
 80496ba:	c7 42 28 64 64 72 65 	movl   $0x65726464,0x28(%edx)
 80496c1:	66 c7 42 2c 73 73    	movw   $0x7373,0x2c(%edx)
 80496c7:	c6 42 2e 00          	movb   $0x0,0x2e(%edx)
 80496cb:	89 2c 24             	mov    %ebp,(%esp)
 80496ce:	e8 dd f1 ff ff       	call   80488b0 <close@plt>
 80496d3:	b8 ff ff ff ff       	mov    $0xffffffff,%eax
 80496d8:	e9 c5 06 00 00       	jmp    8049da2 <submitr+0x7da>
 80496dd:	8d b4 24 50 a0 00 00 	lea    0xa050(%esp),%esi
 80496e4:	c7 84 24 50 a0 00 00 	movl   $0x0,0xa050(%esp)
 80496eb:	00 00 00 00 
 80496ef:	c7 84 24 54 a0 00 00 	movl   $0x0,0xa054(%esp)
 80496f6:	00 00 00 00 
 80496fa:	c7 84 24 58 a0 00 00 	movl   $0x0,0xa058(%esp)
 8049701:	00 00 00 00 
 8049705:	c7 84 24 5c a0 00 00 	movl   $0x0,0xa05c(%esp)
 804970c:	00 00 00 00 
 8049710:	66 c7 84 24 50 a0 00 	movw   $0x2,0xa050(%esp)
 8049717:	00 02 00 
 804971a:	8b 50 0c             	mov    0xc(%eax),%edx
 804971d:	89 54 24 08          	mov    %edx,0x8(%esp)
 8049721:	8d 94 24 54 a0 00 00 	lea    0xa054(%esp),%edx
 8049728:	89 54 24 04          	mov    %edx,0x4(%esp)
 804972c:	8b 40 10             	mov    0x10(%eax),%eax
 804972f:	8b 00                	mov    (%eax),%eax
 8049731:	89 04 24             	mov    %eax,(%esp)
 8049734:	e8 47 f0 ff ff       	call   8048780 <bcopy@plt>
 8049739:	0f b7 84 24 84 a0 00 	movzwl 0xa084(%esp),%eax
 8049740:	00 
 8049741:	66 c1 c8 08          	ror    $0x8,%ax
 8049745:	66 89 84 24 52 a0 00 	mov    %ax,0xa052(%esp)
 804974c:	00 
 804974d:	c7 44 24 08 10 00 00 	movl   $0x10,0x8(%esp)
 8049754:	00 
 8049755:	89 74 24 04          	mov    %esi,0x4(%esp)
 8049759:	89 2c 24             	mov    %ebp,(%esp)
 804975c:	e8 3f f1 ff ff       	call   80488a0 <connect@plt>
 8049761:	85 c0                	test   %eax,%eax
 8049763:	79 61                	jns    80497c6 <submitr+0x1fe>
 8049765:	8b 8c 24 98 a0 00 00 	mov    0xa098(%esp),%ecx
 804976c:	c7 01 45 72 72 6f    	movl   $0x6f727245,(%ecx)
 8049772:	c7 41 04 72 3a 20 55 	movl   $0x55203a72,0x4(%ecx)
 8049779:	c7 41 08 6e 61 62 6c 	movl   $0x6c62616e,0x8(%ecx)
 8049780:	c7 41 0c 65 20 74 6f 	movl   $0x6f742065,0xc(%ecx)
 8049787:	c7 41 10 20 63 6f 6e 	movl   $0x6e6f6320,0x10(%ecx)
 804978e:	c7 41 14 6e 65 63 74 	movl   $0x7463656e,0x14(%ecx)
 8049795:	c7 41 18 20 74 6f 20 	movl   $0x206f7420,0x18(%ecx)
 804979c:	c7 41 1c 74 68 65 20 	movl   $0x20656874,0x1c(%ecx)
 80497a3:	c7 41 20 73 65 72 76 	movl   $0x76726573,0x20(%ecx)
 80497aa:	66 c7 41 24 65 72    	movw   $0x7265,0x24(%ecx)
 80497b0:	c6 41 26 00          	movb   $0x0,0x26(%ecx)
 80497b4:	89 2c 24             	mov    %ebp,(%esp)
 80497b7:	e8 f4 f0 ff ff       	call   80488b0 <close@plt>
 80497bc:	b8 ff ff ff ff       	mov    $0xffffffff,%eax
 80497c1:	e9 dc 05 00 00       	jmp    8049da2 <submitr+0x7da>
 80497c6:	ba ff ff ff ff       	mov    $0xffffffff,%edx
 80497cb:	89 df                	mov    %ebx,%edi
 80497cd:	b8 00 00 00 00       	mov    $0x0,%eax
 80497d2:	89 d1                	mov    %edx,%ecx
 80497d4:	f2 ae                	repnz scas %es:(%edi),%al
 80497d6:	89 ce                	mov    %ecx,%esi
 80497d8:	f7 d6                	not    %esi
 80497da:	8b bc 24 88 a0 00 00 	mov    0xa088(%esp),%edi
 80497e1:	89 d1                	mov    %edx,%ecx
 80497e3:	f2 ae                	repnz scas %es:(%edi),%al
 80497e5:	89 4c 24 28          	mov    %ecx,0x28(%esp)
 80497e9:	8b bc 24 8c a0 00 00 	mov    0xa08c(%esp),%edi
 80497f0:	89 d1                	mov    %edx,%ecx
 80497f2:	f2 ae                	repnz scas %es:(%edi),%al
 80497f4:	f7 d1                	not    %ecx
 80497f6:	89 4c 24 2c          	mov    %ecx,0x2c(%esp)
 80497fa:	8b bc 24 90 a0 00 00 	mov    0xa090(%esp),%edi
 8049801:	89 d1                	mov    %edx,%ecx
 8049803:	f2 ae                	repnz scas %es:(%edi),%al
 8049805:	8b 44 24 2c          	mov    0x2c(%esp),%eax
 8049809:	2b 44 24 28          	sub    0x28(%esp),%eax
 804980d:	89 c2                	mov    %eax,%edx
 804980f:	29 ca                	sub    %ecx,%edx
 8049811:	8d 44 76 fd          	lea    -0x3(%esi,%esi,2),%eax
 8049815:	8d 44 02 7b          	lea    0x7b(%edx,%eax,1),%eax
 8049819:	3d 00 20 00 00       	cmp    $0x2000,%eax
 804981e:	76 7a                	jbe    804989a <submitr+0x2d2>
 8049820:	8b 84 24 98 a0 00 00 	mov    0xa098(%esp),%eax
 8049827:	c7 00 45 72 72 6f    	movl   $0x6f727245,(%eax)
 804982d:	c7 40 04 72 3a 20 52 	movl   $0x52203a72,0x4(%eax)
 8049834:	c7 40 08 65 73 75 6c 	movl   $0x6c757365,0x8(%eax)
 804983b:	c7 40 0c 74 20 73 74 	movl   $0x74732074,0xc(%eax)
 8049842:	c7 40 10 72 69 6e 67 	movl   $0x676e6972,0x10(%eax)
 8049849:	c7 40 14 20 74 6f 6f 	movl   $0x6f6f7420,0x14(%eax)
 8049850:	c7 40 18 20 6c 61 72 	movl   $0x72616c20,0x18(%eax)
 8049857:	c7 40 1c 67 65 2e 20 	movl   $0x202e6567,0x1c(%eax)
 804985e:	c7 40 20 49 6e 63 72 	movl   $0x72636e49,0x20(%eax)
 8049865:	c7 40 24 65 61 73 65 	movl   $0x65736165,0x24(%eax)
 804986c:	c7 40 28 20 53 55 42 	movl   $0x42555320,0x28(%eax)
 8049873:	c7 40 2c 4d 49 54 52 	movl   $0x5254494d,0x2c(%eax)
 804987a:	c7 40 30 5f 4d 41 58 	movl   $0x58414d5f,0x30(%eax)
 8049881:	c7 40 34 42 55 46 00 	movl   $0x465542,0x34(%eax)
 8049888:	89 2c 24             	mov    %ebp,(%esp)
 804988b:	e8 20 f0 ff ff       	call   80488b0 <close@plt>
 8049890:	b8 ff ff ff ff       	mov    $0xffffffff,%eax
 8049895:	e9 08 05 00 00       	jmp    8049da2 <submitr+0x7da>
 804989a:	8d 94 24 44 40 00 00 	lea    0x4044(%esp),%edx
 80498a1:	b9 00 08 00 00       	mov    $0x800,%ecx
 80498a6:	b8 00 00 00 00       	mov    $0x0,%eax
 80498ab:	89 d7                	mov    %edx,%edi
 80498ad:	f3 ab                	rep stos %eax,%es:(%edi)
 80498af:	89 df                	mov    %ebx,%edi
 80498b1:	b9 ff ff ff ff       	mov    $0xffffffff,%ecx
 80498b6:	f2 ae                	repnz scas %es:(%edi),%al
 80498b8:	f7 d1                	not    %ecx
 80498ba:	89 cf                	mov    %ecx,%edi
 80498bc:	83 ef 01             	sub    $0x1,%edi
 80498bf:	0f 84 f3 03 00 00    	je     8049cb8 <submitr+0x6f0>
 80498c5:	89 d6                	mov    %edx,%esi
 80498c7:	0f b6 03             	movzbl (%ebx),%eax
 80498ca:	3c 2d                	cmp    $0x2d,%al
 80498cc:	74 24                	je     80498f2 <submitr+0x32a>
 80498ce:	3c 2a                	cmp    $0x2a,%al
 80498d0:	74 20                	je     80498f2 <submitr+0x32a>
 80498d2:	3c 2e                	cmp    $0x2e,%al
 80498d4:	74 1c                	je     80498f2 <submitr+0x32a>
 80498d6:	3c 5f                	cmp    $0x5f,%al
 80498d8:	74 18                	je     80498f2 <submitr+0x32a>
 80498da:	8d 50 d0             	lea    -0x30(%eax),%edx
 80498dd:	80 fa 09             	cmp    $0x9,%dl
 80498e0:	76 10                	jbe    80498f2 <submitr+0x32a>
 80498e2:	8d 50 bf             	lea    -0x41(%eax),%edx
 80498e5:	80 fa 19             	cmp    $0x19,%dl
 80498e8:	76 08                	jbe    80498f2 <submitr+0x32a>
 80498ea:	8d 50 9f             	lea    -0x61(%eax),%edx
 80498ed:	80 fa 19             	cmp    $0x19,%dl
 80498f0:	77 07                	ja     80498f9 <submitr+0x331>
 80498f2:	88 06                	mov    %al,(%esi)
 80498f4:	83 c6 01             	add    $0x1,%esi
 80498f7:	eb 51                	jmp    804994a <submitr+0x382>
 80498f9:	3c 20                	cmp    $0x20,%al
 80498fb:	75 08                	jne    8049905 <submitr+0x33d>
 80498fd:	c6 06 2b             	movb   $0x2b,(%esi)
 8049900:	83 c6 01             	add    $0x1,%esi
 8049903:	eb 45                	jmp    804994a <submitr+0x382>
 8049905:	8d 50 e0             	lea    -0x20(%eax),%edx
 8049908:	80 fa 5f             	cmp    $0x5f,%dl
 804990b:	76 08                	jbe    8049915 <submitr+0x34d>
 804990d:	3c 09                	cmp    $0x9,%al
 804990f:	0f 85 0d 04 00 00    	jne    8049d22 <submitr+0x75a>
 8049915:	0f b6 c0             	movzbl %al,%eax
 8049918:	89 44 24 08          	mov    %eax,0x8(%esp)
 804991c:	c7 44 24 04 60 a7 04 	movl   $0x804a760,0x4(%esp)
 8049923:	08 
 8049924:	8d 54 24 38          	lea    0x38(%esp),%edx
 8049928:	89 14 24             	mov    %edx,(%esp)
 804992b:	e8 30 ef ff ff       	call   8048860 <sprintf@plt>
 8049930:	0f b6 44 24 38       	movzbl 0x38(%esp),%eax
 8049935:	88 06                	mov    %al,(%esi)
 8049937:	0f b6 44 24 39       	movzbl 0x39(%esp),%eax
 804993c:	88 46 01             	mov    %al,0x1(%esi)
 804993f:	0f b6 44 24 3a       	movzbl 0x3a(%esp),%eax
 8049944:	88 46 02             	mov    %al,0x2(%esi)
 8049947:	83 c6 03             	add    $0x3,%esi
 804994a:	83 c3 01             	add    $0x1,%ebx
 804994d:	83 ef 01             	sub    $0x1,%edi
 8049950:	0f 85 71 ff ff ff    	jne    80498c7 <submitr+0x2ff>
 8049956:	e9 5d 03 00 00       	jmp    8049cb8 <submitr+0x6f0>
 804995b:	89 5c 24 08          	mov    %ebx,0x8(%esp)
 804995f:	89 74 24 04          	mov    %esi,0x4(%esp)
 8049963:	89 2c 24             	mov    %ebp,(%esp)
 8049966:	e8 a5 ee ff ff       	call   8048810 <write@plt>
 804996b:	85 c0                	test   %eax,%eax
 804996d:	7f 0f                	jg     804997e <submitr+0x3b6>
 804996f:	e8 dc ee ff ff       	call   8048850 <__errno_location@plt>
 8049974:	83 38 04             	cmpl   $0x4,(%eax)
 8049977:	75 0f                	jne    8049988 <submitr+0x3c0>
 8049979:	b8 00 00 00 00       	mov    $0x0,%eax
 804997e:	01 c6                	add    %eax,%esi
 8049980:	29 c3                	sub    %eax,%ebx
 8049982:	75 d7                	jne    804995b <submitr+0x393>
 8049984:	85 ff                	test   %edi,%edi
 8049986:	79 65                	jns    80499ed <submitr+0x425>
 8049988:	8b 8c 24 98 a0 00 00 	mov    0xa098(%esp),%ecx
 804998f:	c7 01 45 72 72 6f    	movl   $0x6f727245,(%ecx)
 8049995:	c7 41 04 72 3a 20 43 	movl   $0x43203a72,0x4(%ecx)
 804999c:	c7 41 08 6c 69 65 6e 	movl   $0x6e65696c,0x8(%ecx)
 80499a3:	c7 41 0c 74 20 75 6e 	movl   $0x6e752074,0xc(%ecx)
 80499aa:	c7 41 10 61 62 6c 65 	movl   $0x656c6261,0x10(%ecx)
 80499b1:	c7 41 14 20 74 6f 20 	movl   $0x206f7420,0x14(%ecx)
 80499b8:	c7 41 18 77 72 69 74 	movl   $0x74697277,0x18(%ecx)
 80499bf:	c7 41 1c 65 20 74 6f 	movl   $0x6f742065,0x1c(%ecx)
 80499c6:	c7 41 20 20 74 68 65 	movl   $0x65687420,0x20(%ecx)
 80499cd:	c7 41 24 20 73 65 72 	movl   $0x72657320,0x24(%ecx)
 80499d4:	c7 41 28 76 65 72 00 	movl   $0x726576,0x28(%ecx)
 80499db:	89 2c 24             	mov    %ebp,(%esp)
 80499de:	e8 cd ee ff ff       	call   80488b0 <close@plt>
 80499e3:	b8 ff ff ff ff       	mov    $0xffffffff,%eax
 80499e8:	e9 b5 03 00 00       	jmp    8049da2 <submitr+0x7da>
 80499ed:	89 ac 24 44 80 00 00 	mov    %ebp,0x8044(%esp)
 80499f4:	c7 84 24 48 80 00 00 	movl   $0x0,0x8048(%esp)
 80499fb:	00 00 00 00 
 80499ff:	8d 84 24 50 80 00 00 	lea    0x8050(%esp),%eax
 8049a06:	89 84 24 4c 80 00 00 	mov    %eax,0x804c(%esp)
 8049a0d:	b9 00 20 00 00       	mov    $0x2000,%ecx
 8049a12:	8d 94 24 44 60 00 00 	lea    0x6044(%esp),%edx
 8049a19:	8d 84 24 44 80 00 00 	lea    0x8044(%esp),%eax
 8049a20:	e8 6b fa ff ff       	call   8049490 <rio_readlineb>
 8049a25:	85 c0                	test   %eax,%eax
 8049a27:	7f 79                	jg     8049aa2 <submitr+0x4da>
 8049a29:	8b 84 24 98 a0 00 00 	mov    0xa098(%esp),%eax
 8049a30:	c7 00 45 72 72 6f    	movl   $0x6f727245,(%eax)
 8049a36:	c7 40 04 72 3a 20 43 	movl   $0x43203a72,0x4(%eax)
 8049a3d:	c7 40 08 6c 69 65 6e 	movl   $0x6e65696c,0x8(%eax)
 8049a44:	c7 40 0c 74 20 75 6e 	movl   $0x6e752074,0xc(%eax)
 8049a4b:	c7 40 10 61 62 6c 65 	movl   $0x656c6261,0x10(%eax)
 8049a52:	c7 40 14 20 74 6f 20 	movl   $0x206f7420,0x14(%eax)
 8049a59:	c7 40 18 72 65 61 64 	movl   $0x64616572,0x18(%eax)
 8049a60:	c7 40 1c 20 66 69 72 	movl   $0x72696620,0x1c(%eax)
 8049a67:	c7 40 20 73 74 20 68 	movl   $0x68207473,0x20(%eax)
 8049a6e:	c7 40 24 65 61 64 65 	movl   $0x65646165,0x24(%eax)
 8049a75:	c7 40 28 72 20 66 72 	movl   $0x72662072,0x28(%eax)
 8049a7c:	c7 40 2c 6f 6d 20 73 	movl   $0x73206d6f,0x2c(%eax)
 8049a83:	c7 40 30 65 72 76 65 	movl   $0x65767265,0x30(%eax)
 8049a8a:	66 c7 40 34 72 00    	movw   $0x72,0x34(%eax)
 8049a90:	89 2c 24             	mov    %ebp,(%esp)
 8049a93:	e8 18 ee ff ff       	call   80488b0 <close@plt>
 8049a98:	b8 ff ff ff ff       	mov    $0xffffffff,%eax
 8049a9d:	e9 00 03 00 00       	jmp    8049da2 <submitr+0x7da>
 8049aa2:	8d 44 24 40          	lea    0x40(%esp),%eax
 8049aa6:	89 44 24 10          	mov    %eax,0x10(%esp)
 8049aaa:	8d 84 24 40 20 00 00 	lea    0x2040(%esp),%eax
 8049ab1:	89 44 24 0c          	mov    %eax,0xc(%esp)
 8049ab5:	8d 84 24 44 20 00 00 	lea    0x2044(%esp),%eax
 8049abc:	89 44 24 08          	mov    %eax,0x8(%esp)
 8049ac0:	c7 44 24 04 67 a7 04 	movl   $0x804a767,0x4(%esp)
 8049ac7:	08 
 8049ac8:	8d 84 24 44 60 00 00 	lea    0x6044(%esp),%eax
 8049acf:	89 04 24             	mov    %eax,(%esp)
 8049ad2:	e8 59 ed ff ff       	call   8048830 <__isoc99_sscanf@plt>
 8049ad7:	8b 84 24 40 20 00 00 	mov    0x2040(%esp),%eax
 8049ade:	3d c8 00 00 00       	cmp    $0xc8,%eax
 8049ae3:	0f 84 c1 00 00 00    	je     8049baa <submitr+0x5e2>
 8049ae9:	8d 54 24 40          	lea    0x40(%esp),%edx
 8049aed:	89 54 24 0c          	mov    %edx,0xc(%esp)
 8049af1:	89 44 24 08          	mov    %eax,0x8(%esp)
 8049af5:	c7 44 24 04 78 a6 04 	movl   $0x804a678,0x4(%esp)
 8049afc:	08 
 8049afd:	8b 94 24 98 a0 00 00 	mov    0xa098(%esp),%edx
 8049b04:	89 14 24             	mov    %edx,(%esp)
 8049b07:	e8 54 ed ff ff       	call   8048860 <sprintf@plt>
 8049b0c:	89 2c 24             	mov    %ebp,(%esp)
 8049b0f:	e8 9c ed ff ff       	call   80488b0 <close@plt>
 8049b14:	b8 ff ff ff ff       	mov    $0xffffffff,%eax
 8049b19:	e9 84 02 00 00       	jmp    8049da2 <submitr+0x7da>
 8049b1e:	b9 00 20 00 00       	mov    $0x2000,%ecx
 8049b23:	8d 94 24 44 60 00 00 	lea    0x6044(%esp),%edx
 8049b2a:	8d 84 24 44 80 00 00 	lea    0x8044(%esp),%eax
 8049b31:	e8 5a f9 ff ff       	call   8049490 <rio_readlineb>
 8049b36:	85 c0                	test   %eax,%eax
 8049b38:	7f 70                	jg     8049baa <submitr+0x5e2>
 8049b3a:	8b 8c 24 98 a0 00 00 	mov    0xa098(%esp),%ecx
 8049b41:	c7 01 45 72 72 6f    	movl   $0x6f727245,(%ecx)
 8049b47:	c7 41 04 72 3a 20 43 	movl   $0x43203a72,0x4(%ecx)
 8049b4e:	c7 41 08 6c 69 65 6e 	movl   $0x6e65696c,0x8(%ecx)
 8049b55:	c7 41 0c 74 20 75 6e 	movl   $0x6e752074,0xc(%ecx)
 8049b5c:	c7 41 10 61 62 6c 65 	movl   $0x656c6261,0x10(%ecx)
 8049b63:	c7 41 14 20 74 6f 20 	movl   $0x206f7420,0x14(%ecx)
 8049b6a:	c7 41 18 72 65 61 64 	movl   $0x64616572,0x18(%ecx)
 8049b71:	c7 41 1c 20 68 65 61 	movl   $0x61656820,0x1c(%ecx)
 8049b78:	c7 41 20 64 65 72 73 	movl   $0x73726564,0x20(%ecx)
 8049b7f:	c7 41 24 20 66 72 6f 	movl   $0x6f726620,0x24(%ecx)
 8049b86:	c7 41 28 6d 20 73 65 	movl   $0x6573206d,0x28(%ecx)
 8049b8d:	c7 41 2c 72 76 65 72 	movl   $0x72657672,0x2c(%ecx)
 8049b94:	c6 41 30 00          	movb   $0x0,0x30(%ecx)
 8049b98:	89 2c 24             	mov    %ebp,(%esp)
 8049b9b:	e8 10 ed ff ff       	call   80488b0 <close@plt>
 8049ba0:	b8 ff ff ff ff       	mov    $0xffffffff,%eax
 8049ba5:	e9 f8 01 00 00       	jmp    8049da2 <submitr+0x7da>
 8049baa:	80 bc 24 44 60 00 00 	cmpb   $0xd,0x6044(%esp)
 8049bb1:	0d 
 8049bb2:	0f 85 66 ff ff ff    	jne    8049b1e <submitr+0x556>
 8049bb8:	80 bc 24 45 60 00 00 	cmpb   $0xa,0x6045(%esp)
 8049bbf:	0a 
 8049bc0:	0f 85 58 ff ff ff    	jne    8049b1e <submitr+0x556>
 8049bc6:	80 bc 24 46 60 00 00 	cmpb   $0x0,0x6046(%esp)
 8049bcd:	00 
 8049bce:	0f 85 4a ff ff ff    	jne    8049b1e <submitr+0x556>
 8049bd4:	b9 00 20 00 00       	mov    $0x2000,%ecx
 8049bd9:	8d 94 24 44 60 00 00 	lea    0x6044(%esp),%edx
 8049be0:	8d 84 24 44 80 00 00 	lea    0x8044(%esp),%eax
 8049be7:	e8 a4 f8 ff ff       	call   8049490 <rio_readlineb>
 8049bec:	85 c0                	test   %eax,%eax
 8049bee:	7f 7a                	jg     8049c6a <submitr+0x6a2>
 8049bf0:	8b 84 24 98 a0 00 00 	mov    0xa098(%esp),%eax
 8049bf7:	c7 00 45 72 72 6f    	movl   $0x6f727245,(%eax)
 8049bfd:	c7 40 04 72 3a 20 43 	movl   $0x43203a72,0x4(%eax)
 8049c04:	c7 40 08 6c 69 65 6e 	movl   $0x6e65696c,0x8(%eax)
 8049c0b:	c7 40 0c 74 20 75 6e 	movl   $0x6e752074,0xc(%eax)
 8049c12:	c7 40 10 61 62 6c 65 	movl   $0x656c6261,0x10(%eax)
 8049c19:	c7 40 14 20 74 6f 20 	movl   $0x206f7420,0x14(%eax)
 8049c20:	c7 40 18 72 65 61 64 	movl   $0x64616572,0x18(%eax)
 8049c27:	c7 40 1c 20 73 74 61 	movl   $0x61747320,0x1c(%eax)
 8049c2e:	c7 40 20 74 75 73 20 	movl   $0x20737574,0x20(%eax)
 8049c35:	c7 40 24 6d 65 73 73 	movl   $0x7373656d,0x24(%eax)
 8049c3c:	c7 40 28 61 67 65 20 	movl   $0x20656761,0x28(%eax)
 8049c43:	c7 40 2c 66 72 6f 6d 	movl   $0x6d6f7266,0x2c(%eax)
 8049c4a:	c7 40 30 20 73 65 72 	movl   $0x72657320,0x30(%eax)
 8049c51:	c7 40 34 76 65 72 00 	movl   $0x726576,0x34(%eax)
 8049c58:	89 2c 24             	mov    %ebp,(%esp)
 8049c5b:	e8 50 ec ff ff       	call   80488b0 <close@plt>
 8049c60:	b8 ff ff ff ff       	mov    $0xffffffff,%eax
 8049c65:	e9 38 01 00 00       	jmp    8049da2 <submitr+0x7da>
 8049c6a:	8d 84 24 44 60 00 00 	lea    0x6044(%esp),%eax
 8049c71:	89 44 24 04          	mov    %eax,0x4(%esp)
 8049c75:	8b 94 24 98 a0 00 00 	mov    0xa098(%esp),%edx
 8049c7c:	89 14 24             	mov    %edx,(%esp)
 8049c7f:	e8 0c eb ff ff       	call   8048790 <strcpy@plt>
 8049c84:	89 2c 24             	mov    %ebp,(%esp)
 8049c87:	e8 24 ec ff ff       	call   80488b0 <close@plt>
 8049c8c:	b8 ff ff ff ff       	mov    $0xffffffff,%eax
 8049c91:	8b 8c 24 98 a0 00 00 	mov    0xa098(%esp),%ecx
 8049c98:	80 39 4f             	cmpb   $0x4f,(%ecx)
 8049c9b:	0f 85 01 01 00 00    	jne    8049da2 <submitr+0x7da>
 8049ca1:	80 79 01 4b          	cmpb   $0x4b,0x1(%ecx)
 8049ca5:	0f 85 f7 00 00 00    	jne    8049da2 <submitr+0x7da>
 8049cab:	80 79 02 01          	cmpb   $0x1,0x2(%ecx)
 8049caf:	19 c0                	sbb    %eax,%eax
 8049cb1:	f7 d0                	not    %eax
 8049cb3:	e9 ea 00 00 00       	jmp    8049da2 <submitr+0x7da>
 8049cb8:	8d 84 24 44 40 00 00 	lea    0x4044(%esp),%eax
 8049cbf:	89 44 24 14          	mov    %eax,0x14(%esp)
 8049cc3:	8b 84 24 90 a0 00 00 	mov    0xa090(%esp),%eax
 8049cca:	89 44 24 10          	mov    %eax,0x10(%esp)
 8049cce:	8b 94 24 8c a0 00 00 	mov    0xa08c(%esp),%edx
 8049cd5:	89 54 24 0c          	mov    %edx,0xc(%esp)
 8049cd9:	8b 8c 24 88 a0 00 00 	mov    0xa088(%esp),%ecx
 8049ce0:	89 4c 24 08          	mov    %ecx,0x8(%esp)
 8049ce4:	c7 44 24 04 a8 a6 04 	movl   $0x804a6a8,0x4(%esp)
 8049ceb:	08 
 8049cec:	8d bc 24 44 60 00 00 	lea    0x6044(%esp),%edi
 8049cf3:	89 3c 24             	mov    %edi,(%esp)
 8049cf6:	e8 65 eb ff ff       	call   8048860 <sprintf@plt>
 8049cfb:	b8 00 00 00 00       	mov    $0x0,%eax
 8049d00:	b9 ff ff ff ff       	mov    $0xffffffff,%ecx
 8049d05:	f2 ae                	repnz scas %es:(%edi),%al
 8049d07:	f7 d1                	not    %ecx
 8049d09:	8d 79 ff             	lea    -0x1(%ecx),%edi
 8049d0c:	89 fb                	mov    %edi,%ebx
 8049d0e:	8d b4 24 44 60 00 00 	lea    0x6044(%esp),%esi
 8049d15:	85 ff                	test   %edi,%edi
 8049d17:	0f 85 3e fc ff ff    	jne    804995b <submitr+0x393>
 8049d1d:	e9 cb fc ff ff       	jmp    80499ed <submitr+0x425>
 8049d22:	8b bc 24 98 a0 00 00 	mov    0xa098(%esp),%edi
 8049d29:	be f4 a6 04 08       	mov    $0x804a6f4,%esi
 8049d2e:	b8 43 00 00 00       	mov    $0x43,%eax
 8049d33:	f7 c7 01 00 00 00    	test   $0x1,%edi
 8049d39:	74 1d                	je     8049d58 <submitr+0x790>
 8049d3b:	0f b6 05 f4 a6 04 08 	movzbl 0x804a6f4,%eax
 8049d42:	88 07                	mov    %al,(%edi)
 8049d44:	8b bc 24 98 a0 00 00 	mov    0xa098(%esp),%edi
 8049d4b:	83 c7 01             	add    $0x1,%edi
 8049d4e:	be f5 a6 04 08       	mov    $0x804a6f5,%esi
 8049d53:	b8 42 00 00 00       	mov    $0x42,%eax
 8049d58:	f7 c7 02 00 00 00    	test   $0x2,%edi
 8049d5e:	74 0f                	je     8049d6f <submitr+0x7a7>
 8049d60:	0f b7 16             	movzwl (%esi),%edx
 8049d63:	66 89 17             	mov    %dx,(%edi)
 8049d66:	83 c7 02             	add    $0x2,%edi
 8049d69:	83 c6 02             	add    $0x2,%esi
 8049d6c:	83 e8 02             	sub    $0x2,%eax
 8049d6f:	89 c1                	mov    %eax,%ecx
 8049d71:	c1 e9 02             	shr    $0x2,%ecx
 8049d74:	f3 a5                	rep movsl %ds:(%esi),%es:(%edi)
 8049d76:	ba 00 00 00 00       	mov    $0x0,%edx
 8049d7b:	a8 02                	test   $0x2,%al
 8049d7d:	74 0b                	je     8049d8a <submitr+0x7c2>
 8049d7f:	0f b7 16             	movzwl (%esi),%edx
 8049d82:	66 89 17             	mov    %dx,(%edi)
 8049d85:	ba 02 00 00 00       	mov    $0x2,%edx
 8049d8a:	a8 01                	test   $0x1,%al
 8049d8c:	74 07                	je     8049d95 <submitr+0x7cd>
 8049d8e:	0f b6 04 16          	movzbl (%esi,%edx,1),%eax
 8049d92:	88 04 17             	mov    %al,(%edi,%edx,1)
 8049d95:	89 2c 24             	mov    %ebp,(%esp)
 8049d98:	e8 13 eb ff ff       	call   80488b0 <close@plt>
 8049d9d:	b8 ff ff ff ff       	mov    $0xffffffff,%eax
 8049da2:	81 c4 6c a0 00 00    	add    $0xa06c,%esp
 8049da8:	5b                   	pop    %ebx
 8049da9:	5e                   	pop    %esi
 8049daa:	5f                   	pop    %edi
 8049dab:	5d                   	pop    %ebp
 8049dac:	c3                   	ret    

08049dad <init_timeout>:
 8049dad:	53                   	push   %ebx
 8049dae:	83 ec 18             	sub    $0x18,%esp
 8049db1:	8b 5c 24 20          	mov    0x20(%esp),%ebx
 8049db5:	85 db                	test   %ebx,%ebx
 8049db7:	74 26                	je     8049ddf <init_timeout+0x32>
 8049db9:	c7 44 24 04 9c 95 04 	movl   $0x804959c,0x4(%esp)
 8049dc0:	08 
 8049dc1:	c7 04 24 0e 00 00 00 	movl   $0xe,(%esp)
 8049dc8:	e8 83 e9 ff ff       	call   8048750 <signal@plt>
 8049dcd:	85 db                	test   %ebx,%ebx
 8049dcf:	b8 00 00 00 00       	mov    $0x0,%eax
 8049dd4:	0f 48 d8             	cmovs  %eax,%ebx
 8049dd7:	89 1c 24             	mov    %ebx,(%esp)
 8049dda:	e8 91 e9 ff ff       	call   8048770 <alarm@plt>
 8049ddf:	83 c4 18             	add    $0x18,%esp
 8049de2:	5b                   	pop    %ebx
 8049de3:	c3                   	ret    

08049de4 <init_driver>:
 8049de4:	57                   	push   %edi
 8049de5:	56                   	push   %esi
 8049de6:	53                   	push   %ebx
 8049de7:	83 ec 20             	sub    $0x20,%esp
 8049dea:	8b 74 24 30          	mov    0x30(%esp),%esi
 8049dee:	c7 44 24 04 01 00 00 	movl   $0x1,0x4(%esp)
 8049df5:	00 
 8049df6:	c7 04 24 0d 00 00 00 	movl   $0xd,(%esp)
 8049dfd:	e8 4e e9 ff ff       	call   8048750 <signal@plt>
 8049e02:	c7 44 24 04 01 00 00 	movl   $0x1,0x4(%esp)
 8049e09:	00 
 8049e0a:	c7 04 24 1d 00 00 00 	movl   $0x1d,(%esp)
 8049e11:	e8 3a e9 ff ff       	call   8048750 <signal@plt>
 8049e16:	c7 44 24 04 01 00 00 	movl   $0x1,0x4(%esp)
 8049e1d:	00 
 8049e1e:	c7 04 24 1d 00 00 00 	movl   $0x1d,(%esp)
 8049e25:	e8 26 e9 ff ff       	call   8048750 <signal@plt>
 8049e2a:	c7 44 24 08 00 00 00 	movl   $0x0,0x8(%esp)
 8049e31:	00 
 8049e32:	c7 44 24 04 01 00 00 	movl   $0x1,0x4(%esp)
 8049e39:	00 
 8049e3a:	c7 04 24 02 00 00 00 	movl   $0x2,(%esp)
 8049e41:	e8 2a ea ff ff       	call   8048870 <socket@plt>
 8049e46:	89 c3                	mov    %eax,%ebx
 8049e48:	85 c0                	test   %eax,%eax
 8049e4a:	79 4e                	jns    8049e9a <init_driver+0xb6>
 8049e4c:	c7 06 45 72 72 6f    	movl   $0x6f727245,(%esi)
 8049e52:	c7 46 04 72 3a 20 43 	movl   $0x43203a72,0x4(%esi)
 8049e59:	c7 46 08 6c 69 65 6e 	movl   $0x6e65696c,0x8(%esi)
 8049e60:	c7 46 0c 74 20 75 6e 	movl   $0x6e752074,0xc(%esi)
 8049e67:	c7 46 10 61 62 6c 65 	movl   $0x656c6261,0x10(%esi)
 8049e6e:	c7 46 14 20 74 6f 20 	movl   $0x206f7420,0x14(%esi)
 8049e75:	c7 46 18 63 72 65 61 	movl   $0x61657263,0x18(%esi)
 8049e7c:	c7 46 1c 74 65 20 73 	movl   $0x73206574,0x1c(%esi)
 8049e83:	c7 46 20 6f 63 6b 65 	movl   $0x656b636f,0x20(%esi)
 8049e8a:	66 c7 46 24 74 00    	movw   $0x74,0x24(%esi)
 8049e90:	b8 ff ff ff ff       	mov    $0xffffffff,%eax
 8049e95:	e9 1b 01 00 00       	jmp    8049fb5 <init_driver+0x1d1>
 8049e9a:	c7 04 24 4b a5 04 08 	movl   $0x804a54b,(%esp)
 8049ea1:	e8 da e9 ff ff       	call   8048880 <gethostbyname@plt>
 8049ea6:	85 c0                	test   %eax,%eax
 8049ea8:	75 68                	jne    8049f12 <init_driver+0x12e>
 8049eaa:	c7 06 45 72 72 6f    	movl   $0x6f727245,(%esi)
 8049eb0:	c7 46 04 72 3a 20 44 	movl   $0x44203a72,0x4(%esi)
 8049eb7:	c7 46 08 4e 53 20 69 	movl   $0x6920534e,0x8(%esi)
 8049ebe:	c7 46 0c 73 20 75 6e 	movl   $0x6e752073,0xc(%esi)
 8049ec5:	c7 46 10 61 62 6c 65 	movl   $0x656c6261,0x10(%esi)
 8049ecc:	c7 46 14 20 74 6f 20 	movl   $0x206f7420,0x14(%esi)
 8049ed3:	c7 46 18 72 65 73 6f 	movl   $0x6f736572,0x18(%esi)
 8049eda:	c7 46 1c 6c 76 65 20 	movl   $0x2065766c,0x1c(%esi)
 8049ee1:	c7 46 20 73 65 72 76 	movl   $0x76726573,0x20(%esi)
 8049ee8:	c7 46 24 65 72 20 61 	movl   $0x61207265,0x24(%esi)
 8049eef:	c7 46 28 64 64 72 65 	movl   $0x65726464,0x28(%esi)
 8049ef6:	66 c7 46 2c 73 73    	movw   $0x7373,0x2c(%esi)
 8049efc:	c6 46 2e 00          	movb   $0x0,0x2e(%esi)
 8049f00:	89 1c 24             	mov    %ebx,(%esp)
 8049f03:	e8 a8 e9 ff ff       	call   80488b0 <close@plt>
 8049f08:	b8 ff ff ff ff       	mov    $0xffffffff,%eax
 8049f0d:	e9 a3 00 00 00       	jmp    8049fb5 <init_driver+0x1d1>
 8049f12:	8d 7c 24 10          	lea    0x10(%esp),%edi
 8049f16:	c7 44 24 10 00 00 00 	movl   $0x0,0x10(%esp)
 8049f1d:	00 
 8049f1e:	c7 44 24 14 00 00 00 	movl   $0x0,0x14(%esp)
 8049f25:	00 
 8049f26:	c7 44 24 18 00 00 00 	movl   $0x0,0x18(%esp)
 8049f2d:	00 
 8049f2e:	c7 44 24 1c 00 00 00 	movl   $0x0,0x1c(%esp)
 8049f35:	00 
 8049f36:	66 c7 44 24 10 02 00 	movw   $0x2,0x10(%esp)
 8049f3d:	8b 50 0c             	mov    0xc(%eax),%edx
 8049f40:	89 54 24 08          	mov    %edx,0x8(%esp)
 8049f44:	8d 54 24 14          	lea    0x14(%esp),%edx
 8049f48:	89 54 24 04          	mov    %edx,0x4(%esp)
 8049f4c:	8b 40 10             	mov    0x10(%eax),%eax
 8049f4f:	8b 00                	mov    (%eax),%eax
 8049f51:	89 04 24             	mov    %eax,(%esp)
 8049f54:	e8 27 e8 ff ff       	call   8048780 <bcopy@plt>
 8049f59:	66 c7 44 24 12 3b 6e 	movw   $0x6e3b,0x12(%esp)
 8049f60:	c7 44 24 08 10 00 00 	movl   $0x10,0x8(%esp)
 8049f67:	00 
 8049f68:	89 7c 24 04          	mov    %edi,0x4(%esp)
 8049f6c:	89 1c 24             	mov    %ebx,(%esp)
 8049f6f:	e8 2c e9 ff ff       	call   80488a0 <connect@plt>
 8049f74:	85 c0                	test   %eax,%eax
 8049f76:	79 27                	jns    8049f9f <init_driver+0x1bb>
 8049f78:	c7 44 24 08 4b a5 04 	movl   $0x804a54b,0x8(%esp)
 8049f7f:	08 
 8049f80:	c7 44 24 04 38 a7 04 	movl   $0x804a738,0x4(%esp)
 8049f87:	08 
 8049f88:	89 34 24             	mov    %esi,(%esp)
 8049f8b:	e8 d0 e8 ff ff       	call   8048860 <sprintf@plt>
 8049f90:	89 1c 24             	mov    %ebx,(%esp)
 8049f93:	e8 18 e9 ff ff       	call   80488b0 <close@plt>
 8049f98:	b8 ff ff ff ff       	mov    $0xffffffff,%eax
 8049f9d:	eb 16                	jmp    8049fb5 <init_driver+0x1d1>
 8049f9f:	89 1c 24             	mov    %ebx,(%esp)
 8049fa2:	e8 09 e9 ff ff       	call   80488b0 <close@plt>
 8049fa7:	66 c7 06 4f 4b       	movw   $0x4b4f,(%esi)
 8049fac:	c6 46 02 00          	movb   $0x0,0x2(%esi)
 8049fb0:	b8 00 00 00 00       	mov    $0x0,%eax
 8049fb5:	83 c4 20             	add    $0x20,%esp
 8049fb8:	5b                   	pop    %ebx
 8049fb9:	5e                   	pop    %esi
 8049fba:	5f                   	pop    %edi
 8049fbb:	c3                   	ret    

08049fbc <driver_post>:
 8049fbc:	53                   	push   %ebx
 8049fbd:	83 ec 28             	sub    $0x28,%esp
 8049fc0:	8b 44 24 30          	mov    0x30(%esp),%eax
 8049fc4:	8b 5c 24 3c          	mov    0x3c(%esp),%ebx
 8049fc8:	83 7c 24 38 00       	cmpl   $0x0,0x38(%esp)
 8049fcd:	74 24                	je     8049ff3 <driver_post+0x37>
 8049fcf:	8b 44 24 34          	mov    0x34(%esp),%eax
 8049fd3:	89 44 24 04          	mov    %eax,0x4(%esp)
 8049fd7:	c7 04 24 78 a7 04 08 	movl   $0x804a778,(%esp)
 8049fde:	e8 2d e7 ff ff       	call   8048710 <printf@plt>
 8049fe3:	66 c7 03 4f 4b       	movw   $0x4b4f,(%ebx)
 8049fe8:	c6 43 02 00          	movb   $0x0,0x2(%ebx)
 8049fec:	b8 00 00 00 00       	mov    $0x0,%eax
 8049ff1:	eb 4d                	jmp    804a040 <driver_post+0x84>
 8049ff3:	85 c0                	test   %eax,%eax
 8049ff5:	74 3b                	je     804a032 <driver_post+0x76>
 8049ff7:	80 38 00             	cmpb   $0x0,(%eax)
 8049ffa:	74 36                	je     804a032 <driver_post+0x76>
 8049ffc:	89 5c 24 18          	mov    %ebx,0x18(%esp)
 804a000:	8b 54 24 34          	mov    0x34(%esp),%edx
 804a004:	89 54 24 14          	mov    %edx,0x14(%esp)
 804a008:	c7 44 24 10 8f a7 04 	movl   $0x804a78f,0x10(%esp)
 804a00f:	08 
 804a010:	89 44 24 0c          	mov    %eax,0xc(%esp)
 804a014:	c7 44 24 08 97 a7 04 	movl   $0x804a797,0x8(%esp)
 804a01b:	08 
 804a01c:	c7 44 24 04 6e 3b 00 	movl   $0x3b6e,0x4(%esp)
 804a023:	00 
 804a024:	c7 04 24 4b a5 04 08 	movl   $0x804a54b,(%esp)
 804a02b:	e8 98 f5 ff ff       	call   80495c8 <submitr>
 804a030:	eb 0e                	jmp    804a040 <driver_post+0x84>
 804a032:	66 c7 03 4f 4b       	movw   $0x4b4f,(%ebx)
 804a037:	c6 43 02 00          	movb   $0x0,0x2(%ebx)
 804a03b:	b8 00 00 00 00       	mov    $0x0,%eax
 804a040:	83 c4 28             	add    $0x28,%esp
 804a043:	5b                   	pop    %ebx
 804a044:	c3                   	ret    
 804a045:	66 2e 0f 1f 84 00 00 	nopw   %cs:0x0(%eax,%eax,1)
 804a04c:	00 00 00 
 804a04f:	90                   	nop

0804a050 <__libc_csu_init>:
 804a050:	55                   	push   %ebp
 804a051:	57                   	push   %edi
 804a052:	31 ff                	xor    %edi,%edi
 804a054:	56                   	push   %esi
 804a055:	53                   	push   %ebx
 804a056:	e8 99 e8 ff ff       	call   80488f4 <__x86.get_pc_thunk.bx>
 804a05b:	81 c3 9d 10 00 00    	add    $0x109d,%ebx
 804a061:	83 ec 1c             	sub    $0x1c,%esp
 804a064:	8b 6c 24 30          	mov    0x30(%esp),%ebp
 804a068:	8d b3 0c ff ff ff    	lea    -0xf4(%ebx),%esi
 804a06e:	e8 55 e6 ff ff       	call   80486c8 <_init>
 804a073:	8d 83 08 ff ff ff    	lea    -0xf8(%ebx),%eax
 804a079:	29 c6                	sub    %eax,%esi
 804a07b:	c1 fe 02             	sar    $0x2,%esi
 804a07e:	85 f6                	test   %esi,%esi
 804a080:	74 27                	je     804a0a9 <__libc_csu_init+0x59>
 804a082:	8d b6 00 00 00 00    	lea    0x0(%esi),%esi
 804a088:	8b 44 24 38          	mov    0x38(%esp),%eax
 804a08c:	89 2c 24             	mov    %ebp,(%esp)
 804a08f:	89 44 24 08          	mov    %eax,0x8(%esp)
 804a093:	8b 44 24 34          	mov    0x34(%esp),%eax
 804a097:	89 44 24 04          	mov    %eax,0x4(%esp)
 804a09b:	ff 94 bb 08 ff ff ff 	call   *-0xf8(%ebx,%edi,4)
 804a0a2:	83 c7 01             	add    $0x1,%edi
 804a0a5:	39 f7                	cmp    %esi,%edi
 804a0a7:	75 df                	jne    804a088 <__libc_csu_init+0x38>
 804a0a9:	83 c4 1c             	add    $0x1c,%esp
 804a0ac:	5b                   	pop    %ebx
 804a0ad:	5e                   	pop    %esi
 804a0ae:	5f                   	pop    %edi
 804a0af:	5d                   	pop    %ebp
 804a0b0:	c3                   	ret    
 804a0b1:	eb 0d                	jmp    804a0c0 <__libc_csu_fini>
 804a0b3:	90                   	nop
 804a0b4:	90                   	nop
 804a0b5:	90                   	nop
 804a0b6:	90                   	nop
 804a0b7:	90                   	nop
 804a0b8:	90                   	nop
 804a0b9:	90                   	nop
 804a0ba:	90                   	nop
 804a0bb:	90                   	nop
 804a0bc:	90                   	nop
 804a0bd:	90                   	nop
 804a0be:	90                   	nop
 804a0bf:	90                   	nop

0804a0c0 <__libc_csu_fini>:
 804a0c0:	f3 c3                	repz ret 
 804a0c2:	66 90                	xchg   %ax,%ax

Disassembly of section .fini:

0804a0c4 <_fini>:
 804a0c4:	53                   	push   %ebx
 804a0c5:	83 ec 08             	sub    $0x8,%esp
 804a0c8:	e8 27 e8 ff ff       	call   80488f4 <__x86.get_pc_thunk.bx>
 804a0cd:	81 c3 2b 10 00 00    	add    $0x102b,%ebx
 804a0d3:	83 c4 08             	add    $0x8,%esp
 804a0d6:	5b                   	pop    %ebx
 804a0d7:	c3                   	ret    
